(dp0
Vwritings
p1
I3
sVwhiskers
p2
I4300
sVwomans
p3
I4240
sVsaver
p4
I1216
sVkerchief
p5
I4792
sVyellow
p6
I4
sVeverybody
p7
I2747
sVfour
p8
I5
sVstraws
p9
I2378
sVwoods
p10
I6
sVdispensers
p11
I3397
sVasian
p12
I2379
sVhanging
p13
I7
sVclimb
p14
I3402
sVonions
p15
I4660
sVcaptain
p16
I2380
sVcentimeter
p17
I8
sVchili
p18
I200
sVskeleton
p19
I1793
sVtrolley
p20
I3680
sVwhose
p21
I2381
sVfronts
p22
I2382
sVcanes
p23
I9
sVbuddy
p24
I2383
sVelectricity
p25
I10
sVsegments
p26
I2384
sVswan
p27
I2385
sVseriously
p28
I2386
sVglider
p29
I3901
sVbike
p30
I1219
sVteaspoon
p31
I2387
sVtrousers
p32
I2388
sVlord
p33
I11
sVsorry
p34
I2389
sVspec
p35
I2443
sVshaving
p36
I12
sVdigit
p37
I51
sVwreath
p38
I1220
sVdispense
p39
I3685
sVblanket
p40
I1221
sVdell
p41
I13
sVornaments
p42
I3309
sVwomen's
p43
I1222
sVdriver's
p44
I1223
sVhelmet
p45
I4211
sVleggings
p46
I2459
sVwagons
p47
I1224
sVfreethinkers
p48
I3687
sVfireplace
p49
I3688
sVmarkers
p50
I4843
sVyikes
p51
I1217
sVwooded
p52
I14
sVbaking
p53
I2392
sVwhisk
p54
I1226
sVparrot
p55
I3690
sVcalled
p56
I4580
sVwooden
p57
I15
sVref
p58
I3459
sV$
p59
I2008
sVdisc
p60
I4313
sVguiding
p61
I3691
sVgreenish
p62
I2393
sVsleep
p63
I3678
sVone's
p64
I2178
sVups
p65
I104
sVclothes
p66
I2395
sVchew
p67
I1227
sVforce
p68
I2396
sVspeck
p69
I1228
sVquilt
p70
I2397
sVeagle
p71
I4103
sVphones
p72
I1229
sVrailing
p73
I16
sVbacon
p74
I17
sVlavender
p75
I2398
sVpulse
p76
I18
sVhorn
p77
I1230
sVtires
p78
I19
sVsurrounding
p79
I3698
sVsecond
p80
I20
sVlightpost
p81
I2823
sV49
p82
I3660
sVvaliant
p83
I21
sV7th
p84
I1232
sVwriting
p85
I3758
sVcactus
p86
I2399
sVcolourful
p87
I2400
sVspecs
p88
I1233
sVinanimate
p89
I22
sVblouse
p90
I23
sVhide
p91
I3702
sVhate
p92
I3679
sV+
p93
I1234
sVboogie
p94
I141
sVfingers
p95
I25
sVhazy
p96
I2403
sVlampshade
p97
I3705
sVlights
p98
I2404
sVabove
p99
I1237
sVbeater
p100
I2542
sVnew
p101
I2405
sVtips
p102
I157
sVcarpet
p103
I1796
sVever
p104
I2407
sVcounters
p105
I1240
sVhelmets
p106
I2408
sVsinks
p107
I1241
sVpancakes
p108
I2409
sVherb
p109
I26
sVmen
p110
I2410
sVwrapping
p111
I1242
sVhere
p112
I27
sVherd
p113
I28
sVmet
p114
I2412
sVwere
p115
I2861
sVprotection
p116
I1243
sVchina
p117
I29
sVactive
p118
I2413
sVpath
p119
I3711
sV101
p120
I186
sVpatches
p121
I3682
sVdry
p122
I2415
sVkids
p123
I30
sVdaughter
p124
I1244
sVburners
p125
I4745
sVclarify
p126
I3464
sVrests
p127
I2416
sVitems
p128
I1246
sVk
p129
I31
sVchanged
p130
I3715
sVcrock
p131
I2991
sVtaped
p132
I206
sVjogging
p133
I3716
sVloop
p134
I1985
sVsmoke
p135
I1247
sVmilitary
p136
I216
sVi'm
p137
I32
sVwalkie
p138
I1249
sVapart
p139
I3935
sVyork
p140
I4707
sVgolden
p141
I33
sVprints
p142
I3717
sVdivide
p143
I34
sVslicer
p144
I2419
sVslices
p145
I2420
sVstraw
p146
I3718
sVoverpass
p147
I4065
sVinfield
p148
I1250
sVseven
p149
I2596
sVoff-white
p150
I35
sVorangish
p151
I36
sVsliced
p152
I2421
sVpatience
p153
I2641
sVunix
p154
I37
sVbusses
p155
I236
sVjackets
p156
I2422
sVturkey
p157
I4189
sVtotal
p158
I1251
sVhandlebar
p159
I2423
sVunit
p160
I38
sVslivers
p161
I39
sVore
p162
I2826
sVreflected
p163
I1893
sVscaffolding
p164
I3722
sVwould
p165
I3723
sVarmy
p166
I2426
sValligator
p167
I1253
sVtaking
p168
I3538
sVsweater
p169
I1254
sVcoins
p170
I1255
sVarms
p171
I2428
sVoverhead
p172
I270
sVteddybear
p173
I3725
sVpassport
p174
I41
sVshaded
p175
I4637
sVdairy
p176
I4318
sVsexy
p177
I4629
sVtype
p178
I2430
sVlorry
p179
I1256
sVcalf
p180
I2432
sVtray
p181
I4696
sVseparated
p182
I1257
sVir
p183
I2600
sVfemales
p184
I42
sVpeeping
p185
I2433
sVunder
p186
I3684
sVhaha
p187
I1259
sVwars
p188
I2434
sVaward
p189
I1260
sVaccessories
p190
I3907
sV99
p191
I43
sVglass
p192
I44
sVwarm
p193
I2436
sVport
p194
I4442
sVadult
p195
I2437
sV90
p196
I45
sVhole
p197
I46
sVhold
p198
I47
sVpouch
p199
I2705
sVblocking
p200
I1261
sVpeeler
p201
I4565
sVmust
p202
I3729
sVme
p203
I3730
sVhutch
p204
I3731
sVword
p205
I1262
sVwore
p206
I1263
sVrights
p207
I2440
sVblade
p208
I48
sVgasoline
p209
I2441
sVworn
p210
I1265
sVmovies
p211
I2444
sVlocker
p212
I49
sVrim
p213
I4518
sVshelve
p214
I50
sVelbow
p215
I1266
sVcrackers
p216
I2737
sVroot
p217
I2445
sVvolkswagon
p218
I1267
sVcans
p219
I2605
sVdecorative
p220
I3736
sVsquirting
p221
I2446
sVgive
p222
I2447
sVhorns
p223
I3439
sVdividers
p224
I2448
sVdolphin
p225
I3738
sVindia
p226
I1268
sVinvolve
p227
I2449
sVready
p228
I1989
sVfoods
p229
I2450
sVwoman
p230
I4320
sVcaution
p231
I53
sVveggies
p232
I1270
sVwant
p233
I54
sVpeoples
p234
I4524
sVorganizer
p235
I55
sVkeep
p236
I2185
sVfeline
p237
I3872
sVhob
p238
I56
sVturn
p239
I4108
sVprovide
p240
I1272
sVmouse
p241
I2608
sVtravel
p242
I57
sVdrying
p243
I58
sVnuts
p244
I1273
sVfeature
p245
I59
sVbraids
p246
I2452
sVmachine
p247
I60
sVhow
p248
I61
sVhot
p249
I62
sVadjacent
p250
I3742
sVblackish
p251
I2453
sVboats
p252
I1274
sVcheetah
p253
I63
sVflow
p254
I3845
sVbeach
p255
I1275
sVguardrail
p256
I2390
sVpizza
p257
I1276
sVgaming
p258
I64
sVshoreline
p259
I2101
sVbriefcase
p260
I2455
sVbeauty
p261
I65
sVlad
p262
I1277
sVladder
p263
I1278
sVafter
p264
I1279
sVpm
p265
I4507
sVmovable
p266
I1280
sVlump
p267
I3744
sVside's
p268
I2456
sVwrong
p269
I66
sVmesh
p270
I2831
sVlay
p271
I1281
sVdye
p272
I4158
sVlat
p273
I1282
sVpresident
p274
I2457
sVlaw
p275
I1283
sVlap
p276
I1284
sV9th
p277
I2759
sVtypes
p278
I67
sVcalves
p279
I68
sVthird
p280
I2458
sVsets
p281
I3583
sVcroissant
p282
I3748
sVspout
p283
I3749
sVnike
p284
I3909
sVlost
p285
I2321
sVbaggage
p286
I69
sVdining
p287
I4136
sVgreen
p288
I1286
sVspecks
p289
I70
sVambulance
p290
I1287
sVplumbing
p291
I3752
sVbalancing
p292
I1804
sVoperate
p293
I2460
sVorder
p294
I1288
sVwind
p295
I72
sVwine
p296
I73
sValbans
p297
I2461
sVpopsicle
p298
I1289
sVoffice
p299
I1290
sVdeck
p300
I2462
sVmuffin
p301
I1291
sVover
p302
I3753
sVfall
p303
I3067
sVfacial
p304
I4835
sVchoose
p305
I4683
sVdishware
p306
I2463
sVlondon
p307
I3754
sVoven
p308
I3755
sVkeyboard
p309
I2464
sVdiagonally
p310
I74
sVwindshield
p311
I2465
sVhook
p312
I2495
sVbefore
p313
I2466
sVfir
p314
I75
sVforehead
p315
I3910
sVfit
p316
I76
sVsomewhere
p317
I1293
sVbackpack
p318
I77
sVavocado
p319
I1294
sV,
p320
I2468
sVcrew
p321
I498
sVplantation
p322
I501
sVsomewhat
p323
I2502
sVblueberry
p324
I2675
sV400
p325
I3760
sVnavel
p326
I4002
sVhidden
p327
I78
sVcarton
p328
I1295
sVfin
p329
I79
sVbelly
p330
I2615
sVthen
p331
I1296
sVthem
p332
I1297
sVreds
p333
I4638
sVcombination
p334
I520
sVthee
p335
I1298
sVsafe
p336
I1299
sVwe'll
p337
I1225
sVbreak
p338
I1300
sVband
p339
I1301
sVcouples
p340
I4209
sVgiraffe
p341
I1302
sVcrib
p342
I2838
sVthey
p343
I1303
sVglazed
p344
I2470
sVman-made
p345
I80
sVyourself
p346
I81
sVslats
p347
I82
sVsilver
p348
I83
sVbank
p349
I1305
sVheadboard
p350
I84
sVshadows
p351
I3762
sVseveral
p352
I3911
sVrocky
p353
I1307
sVoxygen
p354
I1308
sVpotatoes
p355
I3763
sVshadowy
p356
I3764
sVcrunchy
p357
I3765
sVl
p358
I1309
sVmulti-color
p359
I86
sVrocks
p360
I1310
sVdingy
p361
I1311
sVfaraway
p362
I556
sVarrow
p363
I87
sVeach
p364
I3009
sVeyeglasses
p365
I3291
sVsliver
p366
I4526
sVmeal
p367
I562
sVbone
p368
I2476
sVmean
p369
I2477
sVlifted
p370
I1313
sVhanger
p371
I3768
sVtelescope
p372
I2221
sVmeets
p373
I2618
sVgarment
p374
I573
sVtrain
p375
I3414
sVliquids
p376
I4529
sVspider
p377
I88
sVbowls
p378
I89
sVwaffle
p379
I3770
sVtip
p380
I4232
sVstrips
p381
I3277
sVhanged
p382
I3771
sVmagnets
p383
I3772
sVchubby
p384
I2478
sVnavy
p385
I2479
sVlogo
p386
I1316
sVflock
p387
I1317
sVmotorized
p388
I1318
sVring
p389
I1613
sVwhip
p390
I92
sVvehicle's
p391
I1319
sVjetski
p392
I4891
sVsilvered
p393
I1992
sVrv
p394
I93
sVcrockery
p395
I1406
sVdriving
p396
I3774
sVgod
p397
I3330
sVha
p398
I2360
sVcameras
p399
I1320
sVdiesel
p400
I1321
sVmonitor
p401
I2805
sVvessels
p402
I1322
sVmason
p403
I94
sVrd
p404
I95
sVre
p405
I96
sVlaid
p406
I3778
sVsafety
p407
I1877
sVumbrellas
p408
I4718
sVreader
p409
I2482
sVmedicine
p410
I1323
sVrevolving
p411
I2483
sVwasher
p412
I3780
sVforth
p413
I1324
sVsliding
p414
I1325
sVgate
p415
I3743
sVturning
p416
I2484
sVbarrier
p417
I1326
sVdoesn't
p418
I3781
sVrail
p419
I1407
sVbottommost
p420
I3783
sVbldg
p421
I2485
sVfree
p422
I3784
sVhunched
p423
I4182
sVpumpkins
p424
I97
sVformation
p425
I3785
sVtalking
p426
I3823
sVgrapes
p427
I98
sVpeople's
p428
I1327
sVmight
p429
I4388
sVsheet
p430
I1616
sVbid
p431
I3302
sVobstructing
p432
I100
sVknit
p433
I101
sVbear's
p434
I2487
sVtabasco
p435
I2488
sVaisle
p436
I2489
sVbaseman
p437
I1328
sVate
p438
I102
sVrows
p439
I4561
sVcomfy
p440
I4423
sVshelves
p441
I103
sVbruised
p442
I2743
sVstarts
p443
I2490
sVhull
p444
I4105
sVatm
p445
I668
sVdays
p446
I3786
sVheading
p447
I2394
sVatv
p448
I105
sVbears
p449
I2191
sVish
p450
I2491
sVsoda
p451
I3788
sVkingdom
p452
I4248
sVuses
p453
I2000
sVonto
p454
I3789
sVcleaning
p455
I2001
sVchopped
p456
I1330
sValready
p457
I3790
sVpyrex
p458
I3792
sVhoop
p459
I2493
sVveggie
p460
I107
sVrank
p461
I3794
sVchannels
p462
I108
sVlettuce
p463
I700
sVanother
p464
I1332
sVcomforter
p465
I2496
sVknifes
p466
I3070
sVthick
p467
I1333
sVplastic
p468
I4115
sVelectronic
p469
I1334
sVlight
p470
I4676
sVhood
p471
I2497
sVbitten
p472
I110
sVfeeding
p473
I3681
sVbasketball
p474
I111
sVhydrant
p475
I2498
sVtrash
p476
I4297
sVlego
p477
I112
sVtop
p478
I3798
sVneck
p479
I2787
sVgirls
p480
I2500
sVtow
p481
I3799
sVapproximately
p482
I1335
sVname
p483
I4095
sVconfirming
p484
I3800
sVmaster
p485
I113
sVtoo
p486
I3802
sVlegs
p487
I114
sVdogs
p488
I1338
sVlisten
p489
I115
sVkiwi
p490
I1339
sVcurtains
p491
I3804
sVceiling
p492
I3805
sValmond
p493
I3693
sVemblem
p494
I1340
sVcarousel
p495
I1620
sVcushions
p496
I116
sVfeathers
p497
I3694
sVvase
p498
I2391
sVbrushes
p499
I3808
sVserve
p500
I3809
sVmedial
p501
I2902
sVdirect
p502
I3695
sVwrapped
p503
I3811
sVanchor
p504
I3812
sVfrosted
p505
I3696
sVpotholder
p506
I117
sVwardrobe
p507
I3814
sVstocking
p508
I2503
sVcharacter
p509
I2634
sVboarding
p510
I2504
sVchef
p511
I1231
sVmessing
p512
I3477
sVreclining
p513
I3227
sVtarget
p514
I1342
sVstructures
p515
I2506
sVleafy
p516
I3827
sVtree
p517
I118
sVrusty
p518
I119
sVseated
p519
I1343
sVshower
p520
I120
sVmatter
p521
I2508
sVmiddle-right
p522
I3816
sVstreet
p523
I3699
sVsilly
p524
I2509
sVspeaking
p525
I2846
sViron
p526
I1344
sVseater
p527
I1345
sVpaved
p528
I2847
sVbridge
p529
I473
sVdonkey
p530
I3820
sVfashion
p531
I3821
sVgiraffes
p532
I1346
sVrunner
p533
I122
sVchickens
p534
I4532
sV10th
p535
I3818
sVmind
p536
I2511
sVginger
p537
I2512
sVanybody
p538
I4533
sVraw
p539
I3268
sVrat
p540
I3824
sVseed
p541
I2513
sVshrubs
p542
I123
sVleafs
p543
I3826
sVseen
p544
I2514
sVseem
p545
I2515
sVobviously
p546
I2004
sVcorns
p547
I124
sVtells
p548
I827
sVcontents
p549
I1347
sVgear
p550
I3480
sVtriangle
p551
I4467
sVescalator
p552
I125
sVnecktie
p553
I1348
sVconcrete
p554
I839
sVbleachers
p555
I127
sVblue-ish
p556
I3481
sV-
p557
I3829
sVsnow
p558
I3830
sVmetallic
p559
I128
sVoriented
p560
I3832
sVchest
p561
I2519
sVsubjects
p562
I1349
sVsweat
p563
I4860
sVchess
p564
I852
sVdoors
p565
I129
sVhatch
p566
I3834
sVsleeveless
p567
I4358
sVskateboarder's
p568
I130
sVrides
p569
I3835
sVrider
p570
I3836
sVorangeish
p571
I2520
sVcircles
p572
I1350
sVeven
p573
I2401
sVgravy
p574
I1351
sVnobody
p575
I3482
sVzebras
p576
I131
sVshall
p577
I132
sVtye
p578
I2521
sVglob
p579
I3839
sVobject
p580
I133
sVwhat
p581
I4333
sVmashed
p582
I2522
sVextending
p583
I1352
sVregular
p584
I2523
sVmouth
p585
I134
sVletter
p586
I135
sVentry
p587
I3289
sVoil
p588
I3162
sVcoin
p589
I3841
sVmacbook
p590
I136
sVglow
p591
I3842
sVgirl's
p592
I3837
sVdummy
p593
I137
sVsinger
p594
I138
sVstupid
p595
I2904
sVhome's
p596
I2524
sVcops
p597
I4121
sVmedical
p598
I893
sVduckling
p599
I1354
sVm
p600
I2526
sVdog
p601
I2527
sVgoalpost
p602
I1355
sVhamper
p603
I1809
sVpoints
p604
I896
sVcamo
p605
I139
sVtha
p606
I1416
sVpineapple
p607
I3847
sVski's
p608
I1357
sVdos
p609
I899
sVshadowed
p610
I3923
sVscotch
p611
I4665
sVcame
p612
I140
sVsaying
p613
I911
sVcooking
p614
I24
sVcrust
p615
I4334
sVqueen
p616
I2083
sVending
p617
I2532
sVpadded
p618
I142
sVbarley
p619
I3457
sVcolors
p620
I3850
sVchandelier
p621
I1358
sVradio
p622
I3851
sVliberty
p623
I3704
sVstepping
p624
I2533
sVearth
p625
I3852
sVthirds
p626
I2534
sVrecliner
p627
I143
sVtoast
p628
I1359
sVtouches
p629
I144
sVbusy
p630
I145
sVice
p631
I3950
sVsuv
p632
I4335
sVmenu
p633
I944
sVbaby's
p634
I147
sVbust
p635
I148
sVsugar
p636
I2536
sVcelery
p637
I2537
sVbush
p638
I149
sVversion
p639
I4336
sVtouched
p640
I150
sVwhite-ish
p641
I2627
sVfolder
p642
I2538
sVrice
p643
I151
sVgoalie
p644
I1360
sVrectangle
p645
I1361
sVwearing
p646
I2539
sValmirah
p647
I975
sVtiles
p648
I2540
sVmixture
p649
I3853
sVsunglasses
p650
I3854
sVcolorful
p651
I2541
sVwide
p652
I4123
sVhonda
p653
I153
sVstop
p654
I2543
sV13
p655
I2853
sVblinking
p656
I3857
sVforemost
p657
I154
sVpocket
p658
I155
sVamazon
p659
I3858
sVwatermelon
p660
I2544
sVtiled
p661
I2545
sVcushion
p662
I156
sVspectacle
p663
I2866
sVreport
p664
I3860
sVscroll
p665
I3055
sVtoolbox
p666
I3862
sVdr
p667
I1363
sVnet
p668
I2406
sVsandy
p669
I3666
sVruns
p670
I1364
sVbar
p671
I2547
sVsailing
p672
I2857
sVgreens
p673
I158
sVcovering
p674
I1365
sVboarder
p675
I159
sVdipping
p676
I160
sVpretzel
p677
I161
sVlicking
p678
I3864
sVbay
p679
I1025
sVbag
p680
I2550
sVbad
p681
I2551
sVdiscs
p682
I2552
sVshots
p683
I3461
sVcarrier
p684
I4859
sVban
p685
I1032
sVsteak
p686
I1366
sVears
p687
I2554
sVlettering
p688
I2555
sVreference
p689
I2556
sVdustbin
p690
I1367
sVperipheral
p691
I164
sVsaddle
p692
I4855
sVblend
p693
I4190
sVchecks
p694
I2917
sVpads
p695
I165
sVnum
p696
I3869
sVaccessory
p697
I2780
sVcattle
p698
I1368
sVnoodles
p699
I3870
sVhammer
p700
I166
sVhairbrush
p701
I1369
sVbest
p702
I167
sVsubject
p703
I2558
sVsaid
p704
I2559
sVlots
p705
I168
sVcucumbers
p706
I4343
sVaway
p707
I1370
sVsail
p708
I2560
sVrings
p709
I1072
sVshaved
p710
I2561
sVartificial
p711
I2562
sVpartition
p712
I3844
sVmud
p713
I3873
sVmug
p714
I3874
sVthere's
p715
I2563
sVfinger
p716
I3875
sVyogurt
p717
I170
sVdrawn
p718
I1372
sVsorts
p719
I2564
sVcubby
p720
I171
sVpirate
p721
I172
sVlazy
p722
I1095
sVterms
p723
I1374
sVwb
p724
I1375
sVnature
p725
I173
sVrolled
p726
I174
sVdisposable
p727
I2411
sVelephant's
p728
I2568
sVmetal
p729
I3347
sVlotion
p730
I2569
sVww
p731
I1376
sVsoutheast
p732
I3880
sVcut
p733
I3294
sVaquarium
p734
I2069
sVwtf
p735
I175
sVupfront
p736
I2570
sVnews
p737
I3882
sVconvertible
p738
I1377
sVsurfer
p739
I3083
sVholds
p740
I3422
sVroller
p741
I176
sVkitchen
p742
I1378
sVfaced
p743
I3883
sVcop
p744
I1379
sVprotect
p745
I3884
sVstore
p746
I4427
sVcot
p747
I1380
sVcow
p748
I1381
sVadapter
p749
I177
sVcup
p750
I3295
sVheating
p751
I178
sVagainst
p752
I2572
sVpillar
p753
I2644
sVfacet
p754
I3886
sVplayers
p755
I3887
sVbookcase
p756
I2573
sVgames
p757
I3888
sVbet
p758
I2208
sVphotographer
p759
I1422
sVpita
p760
I179
sVfloret
p761
I2574
sVasked
p762
I180
sVaren't
p763
I3993
sVtone
p764
I1383
sVspear
p765
I1384
sVwinnie
p766
I2575
sVroyal
p767
I1385
sV2nd
p768
I181
sVhygiene
p769
I2577
sVwritten
p770
I4151
sVgoats
p771
I4500
sVtowels
p772
I3890
sVwider
p773
I1386
sVloaded
p774
I2578
sVblonde
p775
I182
sVgrazing
p776
I183
sVpanel
p777
I3618
sVheadlights
p778
I1387
sVbeetroot
p779
I2579
sVpillars
p780
I184
sVlighthouse
p781
I185
sVcardboard
p782
I2414
sVtins
p783
I2580
sVclip
p784
I4730
sVputs
p785
I2581
sVchrome
p786
I187
sVropes
p787
I3893
sVfro
p788
I188
sVparsley
p789
I1184
sVtiny
p790
I1185
sV.
p791
I189
sVadvert
p792
I190
sVbeer
p793
I3895
sVmuch
p794
I191
sVstadium
p795
I192
sVleft's
p796
I3897
sVcanopy
p797
I4779
sVfry
p798
I193
sVtallest
p799
I194
sVwarmth
p800
I1388
sVcontainers
p801
I3898
sVlocation
p802
I850
sVdots
p803
I196
sVdigits
p804
I3712
sVlife
p805
I197
sVcarrots
p806
I2211
sVmushroom
p807
I2587
sVphotoframe
p808
I4340
sVworker
p809
I1210
sVzebra
p810
I4101
sVsubstance
p811
I555
sVsuspenders
p812
I4501
sVchild
p813
I199
sVcatch
p814
I3900
sVbunny
p815
I1403
sVworked
p816
I1218
sVspin
p817
I201
sVteapot
p818
I3683
sVdash
p819
I2864
sVhas
p820
I1389
sVtank
p821
I2588
sVreddish
p822
I2589
sVluggage
p823
I3713
sVblue-green
p824
I1390
sVsay
p825
I2590
sVair
p826
I1391
sVbifold
p827
I1392
sVugly
p828
I2591
sVlizard
p829
I1235
sVmelted
p830
I1236
sVsuppose
p831
I1238
sVdashboard
p832
I3708
sVaeroplane
p833
I2594
sVaid
p834
I1393
sVbalance
p835
I2595
sVleaves
p836
I3714
sVmistake
p837
I1394
sVridiculously
p838
I3298
sVcylinder
p839
I1395
sVcane
p840
I2597
sVrump
p841
I4881
sVplayed
p842
I203
sVsticker
p843
I1396
sVsushi
p844
I1258
sVsanitizer
p845
I2601
sVit
p846
I2602
sVii
p847
I2603
sVplayer
p848
I204
sVcant
p849
I2604
sVtissue
p850
I1397
sVbrake
p851
I1398
sVcone
p852
I1399
sVdecanter
p853
I3737
sVin
p854
I2606
sVia
p855
I2607
sVconditioner
p856
I1271
sVt
p857
I1734
sVsticked
p858
I1400
sVid
p859
I2609
sVif
p860
I2610
sVgrown
p861
I2611
sVcontaining
p862
I3908
sVthingy
p863
I205
sVbottles
p864
I2612
sVradiator
p865
I2012
sVdrawers
p866
I1820
sVthings
p867
I207
sVmake
p868
I2613
sVtoaster
p869
I208
sVairport
p870
I3089
sVwho
p871
I4738
sVany
p872
I4131
sVbeside
p873
I3756
sVbottled
p874
I2614
sVsplit
p875
I209
sVbabies
p876
I210
sVdvds
p877
I4546
sVvegetable
p878
I2616
sVplates
p879
I1402
sVsidelines
p880
I2617
sVcouple
p881
I211
sVwheel
p882
I1404
sVfairly
p883
I212
sVplating
p884
I1405
sVpapaya
p885
I3912
sVpipette
p886
I213
sVblue
p887
I3701
sVtops
p888
I214
sVrain
p889
I1408
sVhand
p890
I1409
sVphotographers
p891
I215
sVgarlic
p892
I2621
sVcharacters
p893
I3914
sVdark
p894
I3284
sVangle
p895
I4731
sVcooktop
p896
I217
sVaka
p897
I1248
sVkid
p898
I2622
sVbutter
p899
I2623
sVhearth
p900
I3916
sVsomeone's
p901
I2418
sVkept
p902
I1410
sVthy
p903
I1411
sVbuckle
p904
I3631
sVboxes
p905
I3917
sVcompartments
p906
I1412
sVburgers
p907
I218
sVcontact
p908
I1413
sVmother
p909
I3919
sVhearts
p910
I3920
sVthe
p911
I1414
sVmusical
p912
I1415
sVplaque
p913
I219
sVleft
p914
I2625
sVsnowman
p915
I3924
sVsticking
p916
I4345
sVbellow
p917
I220
sVbackground
p918
I2637
sVjust
p919
I2626
sVphoto
p920
I1417
sVsporting
p921
I2628
sVlongish
p922
I4445
sVgoggles
p923
I1418
sVidentify
p924
I2629
sVthanks
p925
I1419
sVhuman
p926
I2630
sVyes
p927
I2631
sV32
p928
I3396
sVyet
p929
I2632
sVprevious
p930
I221
sVsnout
p931
I1636
sVtransformer
p932
I1420
sVspectacles
p933
I222
sVham
p934
I223
sVsunflower
p935
I2633
sVyamaha
p936
I1421
sVcherry
p937
I464
sVhad
p938
I224
sVhay
p939
I225
sVbelongs
p940
I1423
sVboard
p941
I1424
sVeasy
p942
I226
sVduffel
p943
I227
sVoffwhite
p944
I228
sVeast
p945
I229
sVhat
p946
I230
sVclapping
p947
I3929
sVnoticeable
p948
I4040
sVturquoise
p949
I1890
sVcasting
p950
I3930
sVtoned
p951
I1769
sVbands
p952
I3931
sVmayo
p953
I1425
sVthermometer
p954
I4137
sVlooks
p955
I4680
sVpossible
p956
I231
sVcaps
p957
I1426
sVpossibly
p958
I232
sVlcd
p959
I1427
sVloading
p960
I4541
sVbackgroung
p961
I2636
sVbarge
p962
I1428
sVjudge
p963
I3932
sVcape
p964
I1429
sVshadow
p965
I233
sVstrap
p966
I3720
sVburnt
p967
I3934
sVbushy
p968
I234
sVvanity
p969
I2639
sVshoulder
p970
I2640
sV59
p971
I3933
sVgift
p972
I3937
sVvisible
p973
I3721
sVcooler
p974
I1430
sVstroller
p975
I612
sVmanual
p976
I2643
sV50
p977
I3940
sV53
p978
I3941
sVxbox
p979
I1431
sVspecific
p980
I3942
sV55
p981
I3938
sVpavement
p982
I235
sVsteps
p983
I237
sVofficer
p984
I3943
sVnight
p985
I1432
sVhung
p986
I3944
sVsecurity
p987
I1433
sVsignal
p988
I2019
sVantique
p989
I1434
sVjean
p990
I3921
sVright
p991
I238
sVold
p992
I239
sVcrowd
p993
I240
sVpeople
p994
I241
sVstaff
p995
I3509
sVneedle
p996
I3192
sVcookware
p997
I1435
sVcrown
p998
I242
sVhanding
p999
I447
sVdead
p1000
I1465
sVzoom
p1001
I3946
sVsponge
p1002
I3947
sVsure
p1003
I4140
sVvisibly
p1004
I3719
sVbillboard
p1005
I244
sVstools
p1006
I1724
sVbeen
p1007
I3894
sVconfusing
p1008
I1436
sVseparately
p1009
I4548
sVump
p1010
I245
sVfor
p1011
I246
sVbottom
p1012
I247
sVpurple
p1013
I1437
sVear
p1014
I3949
sVnormal
p1015
I2874
sV/
p1016
I1438
sVrhino
p1017
I3951
sVfilming
p1018
I1439
sVsqueeze
p1019
I4872
sVfog
p1020
I248
sVtrunks
p1021
I4097
sVbra
p1022
I1252
sVwiimote
p1023
I4069
sVplantain
p1024
I3953
sVskateboarder
p1025
I2652
sVadorable
p1026
I1441
sVchristmas
p1027
I3954
sVcord
p1028
I4024
sVcore
p1029
I3955
sVshaker
p1030
I249
sVkhaki
p1031
I3956
sVpls
p1032
I1442
sVbold
p1033
I2653
sVpeel
p1034
I1443
sVlefts
p1035
I250
sVdental
p1036
I251
sVpose
p1037
I1444
sVcork
p1038
I3958
sVbinder
p1039
I252
sVphew
p1040
I1445
sVtwds
p1041
I1523
sVpliers
p1042
I253
sVbowing
p1043
I254
sVsuper
p1044
I2658
sVjerkin
p1045
I4348
sVtrophy
p1046
I1447
sVbenches
p1047
I255
sVcowboy
p1048
I3961
sVmeow
p1049
I2659
sVcoral
p1050
I1448
sVo
p1051
I256
sVmagazine
p1052
I2660
sVplus
p1053
I4075
sVhorizon
p1054
I1449
sVgingerbread
p1055
I1450
sVslightly
p1056
I257
sVbook
p1057
I4888
sVbath
p1058
I3967
sVraised
p1059
I258
sVpineapples
p1060
I1452
sVwhats
p1061
I2661
sVthermostat
p1062
I1453
sVfacility
p1063
I259
sVsiting
p1064
I4508
sVmaterial
p1065
I4690
sVselfie
p1066
I2662
sVfloat
p1067
I1455
sVbark
p1068
I4480
sVbound
p1069
I1456
sVson
p1070
I260
sVcapris
p1071
I1586
sVhandbag
p1072
I1457
sVbeings
p1073
I261
sVtanker
p1074
I4710
sVmagazines
p1075
I262
sVcapped
p1076
I1458
sVwrap
p1077
I263
sVsox
p1078
I264
sVanimal's
p1079
I2664
sVparade
p1080
I2665
sVfabric
p1081
I265
sVmedal
p1082
I1459
sVsupport
p1083
I266
sVflying
p1084
I1610
sVknowing
p1085
I4760
sVsunlight
p1086
I3969
sVfight
p1087
I1460
sVramps
p1088
I3709
sVwidth
p1089
I267
sVsplash
p1090
I3099
sVtowing
p1091
I3972
sVboy's
p1092
I268
sVway
p1093
I1461
sVwax
p1094
I1462
sVmusic
p1095
I40
sVavocados
p1096
I271
sVwas
p1097
I1463
sVoverhang
p1098
I272
sVhappy
p1099
I273
sVlowest
p1100
I1464
sVhead
p1101
I3973
sVmedium
p1102
I3974
sVform
p1103
I2669
sVforks
p1104
I1739
sVsomething
p1105
I4657
sVforming
p1106
I274
sVnapkins
p1107
I3388
sVfore
p1108
I1641
sVsomehow
p1109
I2645
sVwireless
p1110
I3976
sVheat
p1111
I3977
sVhear
p1112
I3978
sVelderly
p1113
I2646
sVheap
p1114
I3979
sVsailboats
p1115
I1466
sVstand
p1116
I4271
sVtrue
p1117
I4150
sVpavilion
p1118
I2673
sVslope
p1119
I4147
sVwiper
p1120
I3101
sVinside
p1121
I276
sVattached
p1122
I2674
sVhelicopter
p1123
I4191
sVdevices
p1124
I277
sVtell
p1125
I2431
sVcrystal
p1126
I1467
sVlays
p1127
I278
sVsling
p1128
I2689
sVmeters
p1129
I3948
sVpanels
p1130
I279
sVemit
p1131
I1468
sVfeet
p1132
I4417
sVleaf
p1133
I4840
sVtrim
p1134
I3982
sVpassenger
p1135
I280
sVfella
p1136
I4446
sVshin
p1137
I2678
sVsticks
p1138
I2679
sVumpire
p1139
I1469
sVcovers
p1140
I2680
sVdrive
p1141
I2681
sVsomebody
p1142
I4389
sVdear
p1143
I2647
sVfashioned
p1144
I2682
sVsplotch
p1145
I281
sVsprouts
p1146
I1695
sVfloating
p1147
I1698
sVtooth
p1148
I1646
sVmousepad
p1149
I1471
sVcheck
p1150
I3985
sVtriangles
p1151
I282
sVapartment
p1152
I4316
sVmarking
p1153
I2686
sVoutstretched
p1154
I3986
sVdotted
p1155
I283
sVfloor
p1156
I284
sVtit
p1157
I3988
sVfaces
p1158
I3889
sVstake
p1159
I1472
sVwhen
p1160
I3989
sVtopped
p1161
I1473
sVtis
p1162
I3990
sVtin
p1163
I3991
sVsetting
p1164
I3992
sVrole
p1165
I285
sVholding
p1166
I1474
sVdigital
p1167
I2688
sVtie
p1168
I3995
sVsmell
p1169
I287
sVroll
p1170
I288
sVkleenex
p1171
I4262
sVgreenery
p1172
I289
sVgarland
p1173
I1738
sVo'clock
p1174
I1475
sVjuicer
p1175
I1476
sVdies
p1176
I2690
sVwhy
p1177
I3970
sVfelt
p1178
I2691
sVnotepad
p1179
I1477
sVrimmed
p1180
I4307
sVdiet
p1181
I2692
sVlet's
p1182
I1478
sVfell
p1183
I2693
sVsmelling
p1184
I290
sVrolling
p1185
I291
sVpizzas
p1186
I2694
sVwindscreen
p1187
I292
sVwarn
p1188
I2435
sVyounger
p1189
I3999
sVradishes
p1190
I4000
sVlonger
p1191
I4001
sVpotato
p1192
I2695
sVspects
p1193
I293
sVtypically
p1194
I1647
sVpackets
p1195
I294
sVtogether
p1196
I1479
sVbeds
p1197
I1480
sVcarts
p1198
I2649
sVtext
p1199
I3505
sVtime
p1200
I295
sVpush
p1201
I296
sVbanners
p1202
I297
sVbackward
p1203
I4005
sVstacks
p1204
I4006
sVbasically
p1205
I4356
sVgown
p1206
I298
sVtaillight
p1207
I4824
sVchilds
p1208
I299
sV:(
p1209
I300
sV:)
p1210
I301
sVchain
p1211
I302
sVswitched
p1212
I1482
sVskis
p1213
I2700
sVparticular
p1214
I3105
sVsignage
p1215
I2816
sVfocus
p1216
I4009
sVsilverware
p1217
I1483
sVhorseback
p1218
I1484
sVswitches
p1219
I1485
sVskate
p1220
I303
sVmicrowave
p1221
I2650
sVskiing
p1222
I304
sVtrashcan
p1223
I305
sVchair
p1224
I306
sVtoothpick
p1225
I1486
sVmilk
p1226
I2703
sVkite
p1227
I3504
sVlayers
p1228
I1487
sVware
p1229
I307
sVgrape
p1230
I1488
sVzone
p1231
I1489
sVmallet
p1232
I1490
sVflask
p1233
I1491
sVflash
p1234
I1492
sVfather
p1235
I2706
sVcrates
p1236
I308
sVtees
p1237
I4012
sVenvironment
p1238
I4013
sVveg
p1239
I309
sVrightmost
p1240
I1493
sVasking
p1241
I1440
sVtusk
p1242
I1494
sVmelon
p1243
I4015
sVthingie
p1244
I1495
sVsouthwest
p1245
I1496
sVbrown
p1246
I1497
sVfatigues
p1247
I310
sVprotective
p1248
I1498
sVicing
p1249
I311
sVthermos
p1250
I2756
sVbrownie
p1251
I1499
sVfourth
p1252
I4074
sVautomobiles
p1253
I1500
sVtarmac
p1254
I4032
sVredish
p1255
I312
sVkitten
p1256
I1501
sVcook
p1257
I4018
sVma
p1258
I3732
sVtrouble
p1259
I1502
sVexact
p1260
I313
sVminute
p1261
I314
sVroom
p1262
I2439
sVskyblue
p1263
I2713
sVstapler
p1264
I2714
sVcouches
p1265
I4021
sVsolver
p1266
I315
sV:D
p1267
I316
sVturns
p1268
I1503
sVposts
p1269
I4023
sVgun
p1270
I1504
sVgum
p1271
I1505
sVgrilled
p1272
I2553
sVleave
p1273
I318
sVp
p1274
I1506
sVkits
p1275
I3506
sVbrownish
p1276
I2720
sVsubway
p1277
I319
sVteal
p1278
I320
sVteam
p1279
I321
sVskewer
p1280
I322
sVloads
p1281
I323
sVdip
p1282
I2721
sVround
p1283
I2722
sVdrawings
p1284
I2886
sVupper
p1285
I1509
sVbulldozer
p1286
I324
sVwork
p1287
I1264
sVsays
p1288
I4026
sVwraps
p1289
I4627
sVeyeglass
p1290
I3322
sVminion
p1291
I325
sVsigh
p1292
I1902
sVsign
p1293
I326
sVrefection
p1294
I2677
sVcost
p1295
I1510
sVchopping
p1296
I327
sVshirts
p1297
I328
sVottoman
p1298
I4028
sVeating
p1299
I2728
sVbake
p1300
I4029
sVwatering
p1301
I2427
sVtook
p1302
I3810
sVheadset
p1303
I329
sVdarkest
p1304
I4748
sVsnacks
p1305
I3420
sVappear
p1306
I1512
sVdunkin
p1307
I2654
sVuniform
p1308
I1513
sVcurrent
p1309
I330
sVhungry
p1310
I4145
sVgoes
p1311
I4033
sVpine
p1312
I2729
sVfalling
p1313
I331
sVcurled
p1314
I2888
sVbadge
p1315
I332
sVcorn
p1316
I3957
sVfilled
p1317
I2731
sVhairy
p1318
I4034
sVsupporting
p1319
I1514
sVwatches
p1320
I3561
sVburn
p1321
I2655
sVtransportation
p1322
I2732
sVcamel
p1323
I333
sVhairs
p1324
I4035
sVpeeled
p1325
I1515
sVfrench
p1326
I2734
sVperpendicular
p1327
I4554
sVwater
p1328
I4036
sVsnack
p1329
I1654
sVbaseball
p1330
I4037
sVdisposed
p1331
I4284
sVtusked
p1332
I2735
sVaddress
p1333
I334
sValone
p1334
I335
sVmugs
p1335
I4750
sValong
p1336
I336
sVhooves
p1337
I4139
sVteacher
p1338
I421
sVchange
p1339
I1517
sVwait
p1340
I2738
sVbox
p1341
I2739
sVpassengers
p1342
I337
sVpenguin
p1343
I4577
sVparasol
p1344
I1840
sVsheriff
p1345
I4039
sVflames
p1346
I1518
sVcrayons
p1347
I2565
sVshift
p1348
I1983
sVkites
p1349
I4041
sVcommonly
p1350
I338
sVbow
p1351
I2741
sVumbrella's
p1352
I339
sVwomen
p1353
I4649
sVboo
p1354
I2742
sVusually
p1355
I1519
sVextrem
p1356
I583
sVweird
p1357
I4043
sVok
p1358
I4266
sVpillow
p1359
I1520
sVking
p1360
I4431
sVlove
p1361
I340
sVhiking
p1362
I1521
sVradish
p1363
I341
sVpony
p1364
I4360
sVlounger
p1365
I3326
sVshark
p1366
I3113
sVmarked
p1367
I1522
sVkayak
p1368
I2745
sVkeeper
p1369
I2656
sVsnowboard
p1370
I1524
sVlamppost
p1371
I2746
sVfake
p1372
I342
sVmarker
p1373
I1525
sVillumination
p1374
I1526
sVforefront
p1375
I343
sVsmallish
p1376
I4045
sVpost
p1377
I1446
sVmarket
p1378
I1527
sVsky
p1379
I4827
sVbended
p1380
I344
sVbulbs
p1381
I4046
sVraspberry
p1382
I2031
sVstreetcar
p1383
I1528
sVprojector
p1384
I4047
sVworking
p1385
I345
sVwicker
p1386
I346
sVangry
p1387
I347
sVdude
p1388
I2748
sVwicket
p1389
I348
sVcreamy
p1390
I2749
sVlive
p1391
I1529
sVbases
p1392
I2244
sVsleeping
p1393
I2948
sVopposed
p1394
I349
sVmemory
p1395
I4052
sVcreamer
p1396
I2245
sVthru
p1397
I2751
sVplug
p1398
I3960
sVentrance
p1399
I1531
sVdrinkable
p1400
I2752
sVconductor
p1401
I4054
sVcountertop
p1402
I1532
sVclicking
p1403
I4055
sVgetting
p1404
I4651
sVenvelope
p1405
I1533
sS'N/A'
p1406
I2
sVclue
p1407
I1534
sVfuel
p1408
I4059
sVtines
p1409
I350
sVfar
p1410
I4321
sVemitting
p1411
I3512
sVolive
p1412
I2753
sVcases
p1413
I4060
sVriders
p1414
I351
sVclumps
p1415
I1535
sVmascot
p1416
I352
sVfly
p1417
I2755
sVlogos
p1418
I353
sVbowler
p1419
I1536
sVskaters
p1420
I1537
sVibm
p1421
I1538
sVsphere
p1422
I3115
sVcar
p1423
I1539
sVpretend
p1424
I354
sVcat
p1425
I1541
sVdecker
p1426
I1542
sVsoup
p1427
I2096
sVlabeled
p1428
I1543
sVprinting
p1429
I355
sVcan
p1430
I1544
sVcam
p1431
I1545
sVfollowing
p1432
I356
sVcab
p1433
I1546
sVpickle
p1434
I4063
sVplum
p1435
I3962
sVmouses
p1436
I1547
sVurinals
p1437
I4363
sVheart
p1438
I1548
sVcrazy
p1439
I2763
sVgrassy
p1440
I1549
sVfigure
p1441
I4067
sVmirrors
p1442
I357
sVwineglass
p1443
I4557
sVawesome
p1444
I358
sVnear
p1445
I2592
sVparachute
p1446
I359
sVdrawer
p1447
I2768
sVtinted
p1448
I4068
sVchin
p1449
I1552
sVgallon
p1450
I163
sVfosset
p1451
I360
sVcounting
p1452
I4070
sVclothing
p1453
I1553
sVairplane
p1454
I4364
sVpink
p1455
I2769
sVpurr
p1456
I2141
sVrays
p1457
I2771
sVwinter
p1458
I361
sVsailboat
p1459
I4071
sVdivided
p1460
I362
sVget
p1461
I2895
sVping
p1462
I2772
sVdinner
p1463
I3963
sVtrophies
p1464
I286
sVwrite
p1465
I1555
sVtill
p1466
I2773
sVskater
p1467
I2156
sVelephant
p1468
I363
sVtile
p1469
I2159
sVdivider
p1470
I364
sVpathway
p1471
I2776
sVflavored
p1472
I4076
sVmap
p1473
I2777
sVproduct
p1474
I1556
sVlaundry
p1475
I366
sVskates
p1476
I2775
sVstaircase
p1477
I1557
sVhuge
p1478
I4077
sVmay
p1479
I2779
sVneat
p1480
I2593
sVsour
p1481
I2758
sVspot
p1482
I367
sV149
p1483
I2182
sVthrown
p1484
I4407
sV2:00
p1485
I3757
sVmac
p1486
I2781
sVproduce
p1487
I1558
sVtipped
p1488
I4079
sVdesigned
p1489
I2782
sVnoise
p1490
I3616
sVvases
p1491
I1559
sVdate
p1492
I2188
sVsuch
p1493
I368
sVheroes
p1494
I1560
sVdata
p1495
I369
sVgrow
p1496
I2785
sVlids
p1497
I370
sVman
p1498
I2786
sVtablecloth
p1499
I2783
sVsurfing
p1500
I372
sVnatural
p1501
I373
sVnoses
p1502
I1563
sVliquid
p1503
I4082
sVbeam
p1504
I3515
sVss
p1505
I374
sVoctopus
p1506
I1451
sVwheelchair
p1507
I375
sVplacemat
p1508
I376
sVcorona
p1509
I1566
sVst
p1510
I377
sVquadrant
p1511
I392
sVswitch
p1512
I2790
sVmango
p1513
I378
sVtruck
p1514
I379
sVafrican
p1515
I2792
sVbasket
p1516
I2793
sVtall
p1517
I2794
sVobject's
p1518
I1567
sVpulled
p1519
I380
sVbunk
p1520
I3740
sVtalk
p1521
I2795
sVnearly
p1522
I2897
sVcute
p1523
I2796
sVtagged
p1524
I4746
sVserving
p1525
I1568
sVshield
p1526
I2238
sVorganic
p1527
I4711
sVpointed
p1528
I2798
sVhaircut
p1529
I1569
sVdisplayed
p1530
I1570
sVmaking
p1531
I2761
sVyears
p1532
I381
sVcourse
p1533
I382
sVthinner
p1534
I1571
sVterrace
p1535
I2799
sVcounterclockwise
p1536
I383
sVshake
p1537
I2254
sVmarshmallows
p1538
I2801
sVequip
p1539
I2802
sVcold
p1540
I1572
sVstill
p1541
I1573
sVpointer
p1542
I2803
sVbirds
p1543
I1574
sVcola
p1544
I1575
sVpolice
p1545
I2272
sVthumb
p1546
I384
sVcurly
p1547
I1576
sVhe's
p1548
I4087
sVmilked
p1549
I385
sVcleanest
p1550
I386
sVmantle
p1551
I1454
sVbuns
p1552
I3741
sVplatform
p1553
I4088
sVwindow
p1554
I1577
sVgatorade
p1555
I387
sVcracker
p1556
I3902
sVours
p1557
I2284
sVmain
p1558
I2807
sVstyle
p1559
I4383
sVcutter
p1560
I4090
sVapron
p1561
I389
sVnon
p1562
I1578
sVlonely
p1563
I4091
sVtucked
p1564
I2808
sVlittlest
p1565
I3522
sVmatches
p1566
I390
sVrake
p1567
I1579
sVunderneath
p1568
I4092
sVanswer
p1569
I2454
sVtouching
p1570
I2810
sVtails
p1571
I1580
sVfarther
p1572
I3866
sVhalf
p1573
I1581
sVnot
p1574
I1582
sVnow
p1575
I1583
sV\u005c
p1576
I391
sVnor
p1577
I1585
sVdown
p1578
I2663
sVorgan
p1579
I3523
sVcorners
p1580
I4096
sVdrop
p1581
I1587
sVarrows
p1582
I2812
sV47
p1583
I3661
sVhuman's
p1584
I1588
sVbowling
p1585
I393
sVdid
p1586
I2716
sVentirely
p1587
I1589
sVquarter
p1588
I394
sVlocate
p1589
I4847
sVturtle
p1590
I395
sVbicycle
p1591
I3692
sVsquare
p1592
I396
sVeh
p1593
I1591
sVelephants
p1594
I2814
sVed
p1595
I4867
sVtorch
p1596
I4098
sVplant
p1597
I4099
sVcopybook
p1598
I4719
sVgoose
p1599
I4873
sVsoy
p1600
I1592
sVfires
p1601
I1593
sVuncovered
p1602
I4004
sVex
p1603
I1594
sVentering
p1604
I397
sVbeetle
p1605
I398
sVgirl
p1606
I2817
sVmonitors
p1607
I1595
sVes
p1608
I4889
sVcanada
p1609
I2818
sVliving
p1610
I2819
sVcanvas
p1611
I399
sVcontainer
p1612
I400
sVopened
p1613
I1597
sV3rd
p1614
I2820
sVspace
p1615
I1598
sVcycle
p1616
I3915
sVsquared
p1617
I401
sVdownhill
p1618
I3338
sVlooking
p1619
I1599
sVcontained
p1620
I402
sVopener
p1621
I1600
sVfrig
p1622
I4142
sVpapers
p1623
I3994
sVinternet
p1624
I403
sVsquares
p1625
I404
sVcorrect
p1626
I2822
sVcoolers
p1627
I4102
sVshows
p1628
I1601
sVyarn
p1629
I3470
sVperforming
p1630
I2642
sVhula
p1631
I4104
sVmonster
p1632
I2824
sVcars
p1633
I1602
sVseventh
p1634
I405
sVcart
p1635
I1603
sVquite
p1636
I406
sVcentered
p1637
I3806
sVflyer
p1638
I4106
sVbesides
p1639
I407
sVgrandma
p1640
I408
sVheadband
p1641
I2425
sVcard
p1642
I1604
sVcare
p1643
I1605
sVumpires
p1644
I2971
sVunderwear
p1645
I2827
sVfixed
p1646
I3527
sVsilhouetted
p1647
I409
sVteachers
p1648
I3904
sVbackside
p1649
I410
sVheadphones
p1650
I2829
sVdriveable
p1651
I4588
sVbritish
p1652
I1608
sVostrich
p1653
I411
sVmotion
p1654
I4107
sVthing
p1655
I2830
sVextinguisher
p1656
I4366
sVjumping
p1657
I3745
sVplace
p1658
I4110
sVfootwear
p1659
I412
sVswing
p1660
I4111
sVrouter
p1661
I413
sVview
p1662
I4112
sVthink
p1663
I2833
sVfirst
p1664
I2834
sVblind
p1665
I1609
sVcheese
p1666
I2835
sVtennis
p1667
I2667
sVisnt
p1668
I4381
sVmotel
p1669
I3776
sVlone
p1670
I2836
sVmid-air
p1671
I2837
sVcoming
p1672
I3123
sVtanktop
p1673
I1611
sVbluish
p1674
I414
sVnativity
p1675
I2839
sVexhaust
p1676
I2960
sVlong
p1677
I2840
sVdirectly
p1678
I1612
sVsalsa
p1679
I3746
sVcarry
p1680
I2842
sVimpossible
p1681
I90
sVpotted
p1682
I415
sVopen
p1683
I416
sVont
p1684
I417
sVsize
p1685
I1614
sVsheep
p1686
I1615
sVcity
p1687
I419
sVlittle
p1688
I2843
sVchecked
p1689
I99
sVjugs
p1690
I1617
sVstuck
p1691
I3971
sVarch
p1692
I2844
sVbite
p1693
I420
sVfurry
p1694
I3927
sVtusks
p1695
I1618
sVanyone
p1696
I2845
sVwhos
p1697
I4502
sVchecker
p1698
I1619
sV2
p1699
I422
sVstuffed
p1700
I423
sVtyping
p1701
I2501
sVstreetlight
p1702
I424
sVwhite
p1703
I4117
sVcooling
p1704
I4116
sVbits
p1705
I425
sVfilter
p1706
I3787
sVfriend
p1707
I1621
sVgives
p1708
I4118
sVeyes
p1709
I2848
sVmostly
p1710
I1622
sVthat
p1711
I1623
sVshawl
p1712
I426
sVhuh
p1713
I4119
sVartifact
p1714
I427
sVpadding
p1715
I428
sVflowery
p1716
I1624
sVdudes
p1717
I4499
sVcanine
p1718
I2256
sVbutt
p1719
I2849
sVquad
p1720
I1625
sVflowers
p1721
I1626
sVholder
p1722
I4122
sVthan
p1723
I1627
sV11
p1724
I2851
sV10
p1725
I2852
sVtelevision
p1726
I1628
sV12
p1727
I2854
sV15
p1728
I2855
sV14
p1729
I2856
sV17
p1730
I2548
sV16
p1731
I2549
sV19
p1732
I2858
sV18
p1733
I2859
sVrequire
p1734
I4124
sVcrowded
p1735
I3125
sVcoats
p1736
I429
sVofficials
p1737
I2257
sVknives
p1738
I2860
sVapples
p1739
I1629
sVfruits
p1740
I1630
sVcards
p1741
I4126
sVtractor
p1742
I2862
sVdriveway
p1743
I4127
sVand
p1744
I4128
sVfork
p1745
I2668
sVcoconut
p1746
I2863
sVregister
p1747
I4129
sVsan
p1748
I430
sVangel
p1749
I1631
sVbreakable
p1750
I4339
sVslaw
p1751
I1632
sVparking
p1752
I4165
sVturned
p1753
I431
sValley
p1754
I432
sV13th
p1755
I1633
sVracket
p1756
I3531
sVquadrants
p1757
I433
sVcashier
p1758
I4057
sVburied
p1759
I434
sVfoiled
p1760
I435
sVdelta
p1761
I4572
sV1
p1762
I4073
sVsaw
p1763
I436
sVtheir
p1764
I3797
sVbatting
p1765
I4132
sVsat
p1766
I437
sVroundish
p1767
I4133
sVspeakers
p1768
I2868
sVhooded
p1769
I2869
sVsilhouette
p1770
I4134
sVhawaiian
p1771
I438
sVcigarettes
p1772
I4390
sVmitt
p1773
I4849
sVwashbasin
p1774
I439
sVchessboard
p1775
I4135
sVanswering
p1776
I2870
sVdownwards
p1777
I440
sVaside
p1778
I441
sVnote
p1779
I442
sVequipment
p1780
I1637
sVshelfing
p1781
I1638
sVtake
p1782
I443
sVroadside
p1783
I444
sVpastry
p1784
I2865
sVholders
p1785
I2928
sVglassware
p1786
I2871
sVraisins
p1787
I4570
sVchannel
p1788
I2872
sVbutterfly
p1789
I445
sV4th
p1790
I4713
sVbegin
p1791
I243
sVprinter
p1792
I448
sVmultiple
p1793
I4141
sVpail
p1794
I2873
sVopposite
p1795
I449
sVtrack
p1796
I2875
sVcheesecake
p1797
I2876
sVprice
p1798
I1640
sVdarkish
p1799
I450
sVmicrowaves
p1800
I451
sVbuffet
p1801
I452
sVnutella
p1802
I4483
sVprinted
p1803
I453
sVsheets
p1804
I2877
sVmicro
p1805
I3154
sVpair
p1806
I2878
sVknee
p1807
I454
sVcollar
p1808
I4813
sVamerica
p1809
I1642
sV]
p1810
I1643
sVpages
p1811
I455
sVarmrest
p1812
I456
sVgreyish
p1813
I1644
sVpencils
p1814
I4143
sVlawn
p1815
I457
sVviewable
p1816
I2879
sVcloth
p1817
I4571
sVconsidered
p1818
I4144
sVegg
p1819
I1851
sVnapkin
p1820
I2880
sVsale
p1821
I458
sVwing
p1822
I71
sVgroom's
p1823
I1747
sVbackdrop
p1824
I459
sVbending
p1825
I4458
sVreed
p1826
I2046
sVsenior
p1827
I4146
sVtreats
p1828
I3843
sVsalt
p1829
I461
sVfiling
p1830
I1648
sVbasemen
p1831
I1649
sVdiaper
p1832
I2672
sVbackmost
p1833
I462
sVperch
p1834
I4148
sVwalking
p1835
I463
sVshot
p1836
I2882
sVsolar
p1837
I4149
sVshow
p1838
I2883
sVgerman
p1839
I1650
sVornament
p1840
I2913
sVpost-it
p1841
I2884
sVscoreboard
p1842
I1651
sVpeaches
p1843
I465
sVbright
p1844
I466
sVbedside
p1845
I2885
sVshoe
p1846
I2723
sVcorner
p1847
I2887
sVladle
p1848
I4609
sVcrane
p1849
I4574
sVfifth
p1850
I1652
sVground
p1851
I1653
sVslot
p1852
I467
sVspoons
p1853
I4169
sVslow
p1854
I468
sVhandlebars
p1855
I4378
sVstair
p1856
I1655
sVtitle
p1857
I1656
sVdaily
p1858
I2697
sVstained
p1859
I1657
sVbehind
p1860
I2890
sVeither
p1861
I2997
sVwoof
p1862
I4152
sVonly
p1863
I1658
sVgoing
p1864
I469
sVblack
p1865
I2891
sVraising
p1866
I4576
sVequipped
p1867
I470
sVsheeps
p1868
I3245
sVrobe
p1869
I471
sVwool
p1870
I4154
sVplums
p1871
I2893
sVneath
p1872
I472
sVpumpkin
p1873
I1659
sVlighted
p1874
I4155
sVhippo
p1875
I2894
sVpowdered
p1876
I4868
sVsuitcases
p1877
I474
sVchillies
p1878
I365
sVtilting
p1879
I476
sVbalconies
p1880
I477
sVflowerpot
p1881
I3363
sVmoo
p1882
I4156
sVspraying
p1883
I2896
sVremotes
p1884
I1660
sVcannot
p1885
I1661
sVoutlet
p1886
I478
sVgee
p1887
I2898
sVpiano
p1888
I4751
sVportions
p1889
I3980
sVhedge
p1890
I4159
sVis
p1891
I2599
sVgel
p1892
I2899
sVkeypad
p1893
I3867
sValuminum
p1894
I4160
sVkeyboards
p1895
I2900
sVleather
p1896
I1662
sVlengthy
p1897
I4520
sVpf
p1898
I4504
sVmedian
p1899
I2901
sVqueue
p1900
I1990
sVyield
p1901
I2815
sVacross
p1902
I2903
sVnaked
p1903
I4161
sVskyline
p1904
I479
sVbedspread
p1905
I2624
sVthough
p1906
I3838
sVdough
p1907
I4162
sVtortilla
p1908
I480
sVwhere
p1909
I481
sVrims
p1910
I3876
sVpicnic
p1911
I4163
sVbrim
p1912
I4164
sVphysically
p1913
I1663
sVsear
p1914
I2906
sVipad
p1915
I3485
sVblurred
p1916
I2850
sVrelative
p1917
I2908
sVactively
p1918
I1664
sVasleep
p1919
I1665
sVhorned
p1920
I1918
sVseam
p1921
I2909
sVseal
p1922
I2910
sVcalendar
p1923
I2911
sVsport
p1924
I1666
sVmcdonalds
p1925
I1856
sVcat's
p1926
I4166
sVcolgate
p1927
I446
sVmilkshake
p1928
I4344
sVparent
p1929
I2919
sVwhiskey
p1930
I2676
sVways
p1931
I4167
sVnewspapers
p1932
I4064
sVreview
p1933
I4168
sVboy
p1934
I2740
sVglaze
p1935
I1667
sVlabel
p1936
I2914
sVcolours
p1937
I1668
sVspinach
p1938
I2499
sV3
p1939
I1669
sVlandline
p1940
I1670
sVcd's
p1941
I475
sVmandarin
p1942
I1672
sVmarks
p1943
I2709
sVreading
p1944
I2916
sVsurfboards
p1945
I482
sVdecks
p1946
I483
sVtux
p1947
I2918
sVwhite's
p1948
I4636
sVnotice
p1949
I1673
sVcheckered
p1950
I484
sVplayground
p1951
I2176
sVvertical
p1952
I485
sVeye
p1953
I3095
sVcomp
p1954
I4171
sVscreen
p1955
I486
sVsnowboarding
p1956
I4410
sVcupboard
p1957
I4670
sVdome
p1958
I487
sVguitar
p1959
I4172
sVfaucets
p1960
I4674
sVspare
p1961
I488
sVarticle
p1962
I1674
sVtub
p1963
I2921
sVcomb
p1964
I4174
sVcome
p1965
I4175
sVscree
p1966
I3928
sVpigeons
p1967
I4538
sVdiscernible
p1968
I510
sVtawa
p1969
I2923
sVmob
p1970
I2988
sVtuck
p1971
I2924
sVcakes
p1972
I3251
sVmany
p1973
I490
sVregion
p1974
I4176
sV23
p1975
I3142
sVmonk
p1976
I1675
sVwearings
p1977
I1676
sVflipped
p1978
I491
sVpersonal
p1979
I2467
sVs
p1980
I492
sVmane
p1981
I493
sVreigns
p1982
I2927
sVgrooming
p1983
I494
sVlemon
p1984
I4586
sVcan't
p1985
I495
sVnearby
p1986
I1679
sVamong
p1987
I2929
sVbrightly
p1988
I3983
sVbricks
p1989
I531
sVarmchair
p1990
I4180
sVpot
p1991
I4181
sVroman
p1992
I4495
sVjeans
p1993
I1680
sVpoly
p1994
I4183
sV60
p1995
I4184
sVtwin
p1996
I496
sVstretched
p1997
I2930
sVwhitest
p1998
I2920
sVboar
p1999
I497
sVpod
p2000
I4187
sVtwig
p2001
I3004
sVboat
p2002
I499
sVcoffeemaker
p2003
I1682
sVcaring
p2004
I500
sVbetter
p2005
I2469
sVolives
p2006
I1683
sVcycling
p2007
I1684
sVgrand
p2008
I1995
sVteddy
p2009
I502
sVstretch
p2010
I503
sVwest
p2011
I504
sVundershirt
p2012
I2934
sVairlines
p2013
I505
sVlayer
p2014
I4798
sVmark
p2015
I2935
sVtoilets
p2016
I4823
sVrancher
p2017
I2651
sVreflective
p2018
I507
sVborders
p2019
I2937
sVhardly
p2020
I4193
sVdolly
p2021
I3146
sVpeaking
p2022
I589
sVdirection
p2023
I4195
sVlanes
p2024
I508
sVgilette
p2025
I4196
sVbrush
p2026
I4864
sVsquash
p2027
I2939
sVlaptops
p2028
I2912
sVphotos
p2029
I509
sVmans
p2030
I489
sVstovetop
p2031
I1685
sVbmw
p2032
I2941
sVstems
p2033
I1686
sVskiers
p2034
I1687
sVthose
p2035
I2942
sVpilot
p2036
I4200
sVpaying
p2037
I625
sVmyself
p2038
I4202
sVsoccer
p2039
I4387
sVstacked
p2040
I2944
sV4-5
p2041
I628
sVthese
p2042
I1688
sVpram
p2043
I1689
sVplush
p2044
I3865
sVpolls
p2045
I511
sVsingle
p2046
I3348
sVracker
p2047
I3533
sVtrick
p2048
I1690
sVcast
p2049
I4205
sVcoca
p2050
I2945
sVnewspaper
p2051
I513
sVshops
p2052
I644
sVmargin
p2053
I3086
sVperson's
p2054
I1691
sVslippers
p2055
I4207
sVtwisty
p2056
I514
sVbathe
p2057
I2946
sVvest
p2058
I4208
sVcanoe
p2059
I515
sVsoil
p2060
I1692
sVinflatable
p2061
I1693
sVfigurines
p2062
I1694
sVpurse
p2063
I516
sVtelephone
p2064
I661
sVaccording
p2065
I2925
sVpinky
p2066
I517
sVmiddle
p2067
I2949
sVsomeone
p2068
I4210
sVmuffins
p2069
I2683
sVheels
p2070
I1696
sVhijab
p2071
I2950
sVprotein
p2072
I2951
sVtechnology
p2073
I518
sVship
p2074
I2684
sVride
p2075
I2123
sVbags
p2076
I2952
sVdifferent
p2077
I2953
sVdragging
p2078
I3350
sVpat
p2079
I2954
sVmiddles
p2080
I2275
sVmedia
p2081
I1699
sVfender
p2082
I4212
sVnail
p2083
I3697
sVwiring
p2084
I521
sVmulticolor
p2085
I2926
sVhandwash
p2086
I1700
sVya
p2087
I4231
sVlaptop's
p2088
I4214
sVfigurine
p2089
I1701
sVpad
p2090
I2958
sVshit
p2091
I2685
sVcyan
p2092
I4382
sVlite
p2093
I1702
sVgrain
p2094
I4777
sVpreserver
p2095
I3063
sVisle
p2096
I1634
sVpan
p2097
I2959
sVberry
p2098
I4177
sVvisually
p2099
I522
sVten
p2100
I4327
sVwires
p2101
I523
sVbooths
p2102
I4216
sVclosest
p2103
I1704
sVrainbow
p2104
I4584
sVfrying
p2105
I3861
sVcommode
p2106
I2962
sVnest
p2107
I4217
sVfoam
p2108
I1705
sVdriver
p2109
I4218
sVdrives
p2110
I4219
sVcompanion
p2111
I2964
sVdriven
p2112
I4220
sVpersons
p2113
I4221
sVrunning
p2114
I2965
sVedges
p2115
I524
sVwired
p2116
I525
sVtwo
p2117
I3098
sVadvertisement
p2118
I526
sVmuffler
p2119
I4224
sVclimbing
p2120
I2966
sVtotally
p2121
I2967
sVwheels
p2122
I1677
sVomelette
p2123
I4226
sVdrain
p2124
I2968
sVburrito
p2125
I1707
sVjumper
p2126
I2905
sVlargely
p2127
I2969
sVcharger
p2128
I1708
sVsideways
p2129
I2825
sVvacant
p2130
I527
sVroughly
p2131
I2970
sVknow
p2132
I4834
sVpens
p2133
I4173
sVwithout
p2134
I4227
sVflakes
p2135
I4228
sVcomes
p2136
I1678
sVbottle
p2137
I2972
sVtrains
p2138
I528
sVmasks
p2139
I3466
sVsnowboards
p2140
I2975
sVjoystick
p2141
I1709
sVyacht
p2142
I4003
sVtaxi
p2143
I1710
sVoutdoor
p2144
I2976
sVbeing
p2145
I529
sVmoney
p2146
I2977
sVneon
p2147
I1711
sVrest
p2148
I530
sVgriddle
p2149
I2978
sVhanded
p2150
I2687
sVslanting
p2151
I774
sVstatues
p2152
I3543
sVflavor
p2153
I2979
sVplugged
p2154
I3353
sVspeed
p2155
I1715
sVkneeling
p2156
I4235
sVhalfway
p2157
I4236
sVblow
p2158
I4237
sVoverlapped
p2159
I4238
sVpinkish
p2160
I3761
sVdipped
p2161
I2980
sVsnowboarder
p2162
I1716
sVwidest
p2163
I4239
sVhint
p2164
I3367
sVthinking
p2165
I1717
sVrose
p2166
I4241
sVseems
p2167
I4242
sVexcept
p2168
I4243
sVmirrored
p2169
I1718
sVther
p2170
I1304
sVinstrument
p2171
I2635
sVlets
p2172
I4244
sVpile
p2173
I2981
sV4
p2174
I2982
sVhind
p2175
I4246
sVrailway
p2176
I4178
sVflashing
p2177
I4247
sVbread
p2178
I1306
sVpill
p2179
I2983
sVskies
p2180
I533
sVskier
p2181
I534
sVswim
p2182
I818
sVpropped
p2183
I1721
sVaround
p2184
I535
sVsticky
p2185
I2984
sVread
p2186
I1722
sVruler
p2187
I830
sVmarshmellow
p2188
I536
sVmop
p2189
I2985
sVfridge
p2190
I4249
sVgonna
p2191
I835
sVearly
p2192
I1725
sVreach
p2193
I4448
sVcurry
p2194
I3964
sVtraffic
p2195
I537
sVmom
p2196
I2987
sVvacuum
p2197
I538
sVworld
p2198
I539
sVpsp
p2199
I1727
sVwalk
p2200
I4781
sVlady
p2201
I845
sVfryer
p2202
I1729
sVrear
p2203
I1730
sVmeat
p2204
I2472
sVmeaning
p2205
I4596
sVvertically
p2206
I3299
sVtarp
p2207
I4484
sVvending
p2208
I2992
sVadams
p2209
I2993
sVpostcard
p2210
I1731
sVhotel
p2211
I4428
sVtowed
p2212
I858
sVgreeting
p2213
I860
sVserver
p2214
I2994
sVshutter
p2215
I542
sVthrower
p2216
I1733
sVlaughing
p2217
I619
sVclay
p2218
I543
sVoutput
p2219
I1735
sVdownward
p2220
I1736
sVnice
p2221
I4592
sVstationary
p2222
I544
sVlayered
p2223
I4255
sVtrying
p2224
I1768
sVgrouping
p2225
I545
sVsharp
p2226
I3117
sVseating
p2227
I546
sVexposed
p2228
I1737
sVpacifier
p2229
I2931
sVmoving
p2230
I2492
sVtvs
p2231
I547
sVpolo
p2232
I4186
sVlobster
p2233
I549
sVtable
p2234
I4783
sVimages
p2235
I3001
sVdiving
p2236
I550
sVpickles
p2237
I551
sVintact
p2238
I4256
sVbigger
p2239
I4393
sVthinks
p2240
I552
sVurinal
p2241
I4415
sVgross
p2242
I3003
sVpoll
p2243
I4188
sVprimary
p2244
I3793
sVwristband
p2245
I553
sVtote
p2246
I554
sVconfirm
p2247
I3005
sVtube
p2248
I3366
sVtrowing
p2249
I4594
sVfilling
p2250
I3766
sVnook
p2251
I557
sVpetting
p2252
I3945
sVbuddha
p2253
I917
sVsledding
p2254
I1681
sVrecorder
p2255
I921
sVgoogles
p2256
I4260
sVputted
p2257
I1740
sVknife
p2258
I3006
sVmeasuring
p2259
I3007
sVconsidering
p2260
I2932
sVfootball
p2261
I3997
sVwheat
p2262
I1741
sVroast
p2263
I2473
sVpower
p2264
I559
sVraincoat
p2265
I3008
sVsixth
p2266
I1743
sVchefs
p2267
I1744
sVsofas
p2268
I3088
sVcarried
p2269
I4853
sVvolkswagen
p2270
I1745
sVbroken
p2271
I3010
sVstrainer
p2272
I950
sVflown
p2273
I4528
sVthrow
p2274
I1746
sVearlier
p2275
I4263
sVmotorbike
p2276
I4785
sVtrailers
p2277
I3998
sVjeez
p2278
I959
sVsurfboard
p2279
I4430
sVplacard
p2280
I962
sVpackage
p2281
I561
sVjeep
p2282
I970
sVpaints
p2283
I1749
sVcraft
p2284
I3899
sVswimmer
p2285
I3549
sVguy's
p2286
I3360
sVmixer
p2287
I3013
sVside
p2288
I2475
sVchop
p2289
I1750
sVtrailer
p2290
I1870
sVpockets
p2291
I3014
sVtoothpaste
p2292
I1189
sVmixed
p2293
I3016
sVreferred
p2294
I1871
sVos
p2295
I4273
sVprocessor
p2296
I1752
sVroad
p2297
I3017
sVop
p2298
I4275
sVamber
p2299
I4276
sVheater
p2300
I1753
sVuhaul
p2301
I3018
sVreferenced
p2302
I3019
sVroute
p2303
I2183
sVburning
p2304
I563
sS'No'
p2305
I1
sVwhites
p2306
I3020
sVwhiter
p2307
I3021
sVimage
p2308
I564
sVpick-up
p2309
I4278
sVsigning
p2310
I3767
sVlegged
p2311
I565
sVearring
p2312
I1754
sVharness
p2313
I3023
sVrising
p2314
I4279
sVmoped
p2315
I3452
sVstrip
p2316
I3024
sVom
p2317
I4265
sVskillet
p2318
I3025
sVyour
p2319
I1755
sVpurplish
p2320
I566
sVracquet
p2321
I567
sVgrater
p2322
I1756
sVphone's
p2323
I568
sVher
p2324
I569
sVhes
p2325
I570
sVbristles
p2326
I571
sVhoarding
p2327
I4282
sVthere
p2328
I4283
sVhey
p2329
I572
sVlol
p2330
I1759
sVstart
p2331
I1760
sVcats
p2332
I1761
sVlow
p2333
I1762
sVstars
p2334
I1052
sVcloths
p2335
I3769
sVhen
p2336
I3484
sVbubble
p2337
I574
sVtrey
p2338
I778
sVporch
p2339
I4647
sVjug
p2340
I1061
sVchild's
p2341
I577
sVfixture
p2342
I4398
sVbuggy
p2343
I3028
sVpitcher
p2344
I1764
sVtripod
p2345
I3029
sVidea
p2346
I3161
sVshakers
p2347
I2936
sVwiping
p2348
I3030
sVsled
p2349
I1314
sVomelet
p2350
I1766
sVwalkway
p2351
I3031
sVcottage
p2352
I1767
sVe
p2353
I2060
sVconsumable
p2354
I1077
sVwith
p2355
I579
sVcords
p2356
I4192
sVbuying
p2357
I580
sVspice
p2358
I3033
sVthey're
p2359
I1285
sVarranged
p2360
I3519
sVlargest
p2361
I4806
sVshirtless
p2362
I4258
sVwasn't
p2363
I3034
sVbucket
p2364
I1093
sVplanters
p2365
I2518
sVassume
p2366
I2696
sVpeeking
p2367
I3036
sVdirty
p2368
I581
sVnetting
p2369
I3037
sVsuitcase
p2370
I3038
sVgrass
p2371
I4288
sVtorso
p2372
I584
sVagree
p2373
I585
sVrust
p2374
I586
sVdarker
p2375
I587
sVaa
p2376
I588
sVengine
p2377
I4194
sVac
p2378
I590
sVrequired
p2379
I2062
sVohh
p2380
I592
sVad
p2381
I593
sVvideos
p2382
I3039
sVtoiler
p2383
I4290
sVcertain
p2384
I594
sVpole
p2385
I4185
sVam
p2386
I595
sVsales
p2387
I1774
sVdeep
p2388
I3041
sVan
p2389
I596
sVtshirt
p2390
I597
sVtasty
p2391
I4291
sVat
p2392
I598
sVfile
p2393
I3043
sVwalks
p2394
I599
sVshopping
p2395
I2938
sVpedestal
p2396
I600
sVmoves
p2397
I1132
sVcables
p2398
I3044
sVwhit
p2399
I91
sVcream
p2400
I601
sVjacket
p2401
I2698
sVcabinets
p2402
I1776
sVantenna
p2403
I1777
sVcooked
p2404
I3364
sVidiot
p2405
I4293
sVbored
p2406
I3341
sVdrivers
p2407
I3048
sVstorage
p2408
I1778
sVenclosure
p2409
I2480
sVrubber
p2410
I4294
sVtight
p2411
I602
sV5
p2412
I4296
sVsomeones
p2413
I603
sVmilking
p2414
I1779
sVyou
p2415
I1780
sVpuppy
p2416
I604
sVoutfield
p2417
I3050
sVpolar
p2418
I1781
sVtraveling
p2419
I4617
sVpillows
p2420
I4298
sVseparate
p2421
I1171
sVshelter
p2422
I3051
sVsymbol
p2423
I4299
sVteeth
p2424
I2699
sVmidair
p2425
I800
sVpeas
p2426
I1178
sVterra
p2427
I606
sVwaving
p2428
I607
sVherbs
p2429
I608
sVpodium
p2430
I1783
sVpeak
p2431
I1784
sVshe's
p2432
I2064
sVincluded
p2433
I4302
sVpooh
p2434
I1785
sVoverturned
p2435
I1786
sVpool
p2436
I1787
sValcohol
p2437
I4400
sVtricky
p2438
I609
sVtiger
p2439
I4197
sVremote
p2440
I3054
sVpyramid
p2441
I3905
sVcalls
p2442
I4305
sVhmm
p2443
I4790
sVladles
p2444
I4786
sV14th
p2445
I4844
sVgroom
p2446
I610
sVmask
p2447
I611
sVhello
p2448
I909
sVseat
p2449
I2907
sVmast
p2450
I613
sVu
p2451
I3056
sVresembles
p2452
I3057
sVapparel
p2453
I4308
sVwake
p2454
I2940
sVplatter
p2455
I4309
sVstarting
p2456
I3058
sVcpu
p2457
I614
sVminister
p2458
I4199
sVall
p2459
I4310
sVsurrounded
p2460
I1876
sVconsider
p2461
I615
sVpointing
p2462
I1794
sVpeacock
p2463
I1795
sVwashed
p2464
I3777
sVceramic
p2465
I616
sVdollar
p2466
I3059
sVnone
p2467
I3106
sVcoach
p2468
I4007
sVsmoking
p2469
I2285
sVdish
p2470
I4314
sVfixtures
p2471
I3061
sVdisk
p2472
I4315
sVlace
p2473
I4311
sVchildren
p2474
I3062
sVhmmm
p2475
I1239
sVcontent
p2476
I2481
sVblueberries
p2477
I1315
sVreferring
p2478
I1798
sVvikings
p2479
I617
sVdoe
p2480
I2528
sVtv
p2481
I618
sVlining
p2482
I4317
sVz
p2483
I4579
sVhandrail
p2484
I3906
sVto
p2485
I620
sVtail
p2486
I621
sVchewing
p2487
I622
sVhooked
p2488
I4053
sVti
p2489
I623
sVsmile
p2490
I624
sVwipers
p2491
I4440
sVassist
p2492
I2963
sVwashroom
p2493
I1800
sVsound
p2494
I2943
sVbelonging
p2495
I4319
sVliter
p2496
I1269
sVparcel
p2497
I3064
sVsitting
p2498
I3065
sVvery
p2499
I1801
sVrod
p2500
I4008
sVpuffy
p2501
I3066
sVscrewdriver
p2502
I1802
sVfat
p2503
I4322
sVcoloured
p2504
I1803
sVtower
p2505
I4254
sVdiary
p2506
I627
sVheadgear
p2507
I1805
sVsony
p2508
I4324
sVticket
p2509
I4325
sVenter
p2510
I3751
sVfan
p2511
I4323
sVstrand
p2512
I3759
sVgroups
p2513
I4038
sVdressing
p2514
I3727
sVwashing
p2515
I3068
sVcable
p2516
I629
sVlaying
p2517
I630
sVapplicable
p2518
I3069
sVcaucasian
p2519
I4403
sVlarge
p2520
I631
sVsand
p2521
I632
sVtong
p2522
I4599
sVsidecar
p2523
I3490
sVsmall
p2524
I633
sVmammal
p2525
I634
sVlocomotive
p2526
I1806
sVgang
p2527
I4603
sVbraid
p2528
I4766
sVknelling
p2529
I4404
sVcookies
p2530
I1807
sVtitled
p2531
I840
sVportable
p2532
I3071
sVfence
p2533
I1808
sVclient
p2534
I3833
sVtea
p2535
I4328
sVskin
p2536
I2701
sVreins
p2537
I4329
sVtee
p2538
I4330
sVcash
p2539
I4204
sVpast
p2540
I635
sVburger
p2541
I3072
sVdesign
p2542
I4331
sVperspective
p2543
I3073
sVpass
p2544
I636
sVfurther
p2545
I3074
sVsituated
p2546
I637
sVribbon
p2547
I3075
sVcreatures
p2548
I3076
sVcursor
p2549
I4332
sVdial
p2550
I3077
sVstood
p2551
I3078
sVdarkness
p2552
I1810
sVclock
p2553
I638
sVsun
p2554
I1356
sVsection
p2555
I639
sVstool
p2556
I3079
sVburgundy
p2557
I640
sVpublic
p2558
I3080
sVmix
p2559
I3494
sVrow
p2560
I4011
sVmethod
p2561
I641
sVswans
p2562
I4089
sVtattoos
p2563
I3081
sVfull
p2564
I642
sVtags
p2565
I4337
sVloose
p2566
I1811
sVcomponent
p2567
I3082
sVleaping
p2568
I3878
sVanswers
p2569
I1812
sVbeige
p2570
I2821
sVlack
p2571
I1813
sVtracks
p2572
I1814
sVcylindrical
p2573
I3084
sVoperating
p2574
I3085
sVwill
p2575
I4794
sVtrunk
p2576
I1815
sVv-neck
p2577
I643
sVyummy
p2578
I2704
sVmound
p2579
I4206
sVarena
p2580
I1816
sVpea
p2581
I3320
sVcolored
p2582
I1817
sVahead
p2583
I1818
sVnursing
p2584
I4066
sVblondish
p2585
I4341
sVappearing
p2586
I3936
sVstretching
p2587
I3087
sVweaning
p2588
I4342
sVcreepy
p2589
I1819
sVpics
p2590
I645
sVsoldier
p2591
I1401
sVamount
p2592
I1821
sVlasagna
p2593
I3090
sVpick
p2594
I646
sVaction
p2595
I647
sVnarrow
p2596
I3091
sVpoint
p2597
I3253
sVtrainer
p2598
I1822
sVfenced
p2599
I4605
sVhoodie
p2600
I2486
sVadidas
p2601
I648
sVbuses
p2602
I3092
sVcaravan
p2603
I3093
sVtransit
p2604
I3094
sVcosmetic
p2605
I1824
sVscreens
p2606
I4346
sVask
p2607
I1886
sVcolor
p2608
I4179
sVindoors
p2609
I649
sVfirewood
p2610
I4463
sVappliances
p2611
I4347
sVtoys
p2612
I1826
sVchunks
p2613
I1827
sVthatched
p2614
I1828
sVselect
p2615
I650
sVtaker
p2616
I1829
sVscore
p2617
I3096
sV0
p2618
I1830
sVdonuts
p2619
I4349
sVcontains
p2620
I1831
sVfrontmost
p2621
I651
sVpears
p2622
I652
sVsitter
p2623
I653
sVpitching
p2624
I654
sV6
p2625
I655
sVtaken
p2626
I1833
sVraft
p2627
I3100
sVgarnish
p2628
I4350
sVhatchback
p2629
I2638
sVbrow
p2630
I3507
sVmore
p2631
I656
sVhorses
p2632
I4351
sVflat
p2633
I4352
sVhazard
p2634
I3584
sVdiamond
p2635
I3102
sVdoor
p2636
I657
sVflap
p2637
I4353
sVcaboose
p2638
I3103
sVgrabbing
p2639
I4354
sVsignpost
p2640
I658
sVcompany
p2641
I659
sVbatsman
p2642
I660
sVdishwasher
p2643
I1888
sVbrowner
p2644
I1835
sVchopstick
p2645
I2974
sVflag
p2646
I4355
sVgentleman
p2647
I1371
sVstick
p2648
I1481
sVlemons
p2649
I3104
sVsuite
p2650
I2071
sVmounted
p2651
I1836
sVproducing
p2652
I1837
sVeatable
p2653
I662
sVglad
p2654
I4357
sVgrill
p2655
I1838
sVkeeping
p2656
I663
sVhour
p2657
I3107
sVcluster
p2658
I3108
sVpitcher's
p2659
I3109
sVcitizen
p2660
I3597
sVcreated
p2661
I1329
sVsucks
p2662
I3110
sVthickest
p2663
I664
sVguards
p2664
I3111
sVnine
p2665
I1839
sVv
p2666
I4359
sVseagull
p2667
I665
sVmale
p2668
I666
sVlighter
p2669
I4157
sVmarble
p2670
I4042
sVladys
p2671
I3112
sVhistory
p2672
I1841
sVbeautiful
p2673
I667
sVbracelet
p2674
I4253
sVford
p2675
I2671
sVeveryone
p2676
I3157
sVhamburger
p2677
I3114
sVdivision
p2678
I4361
sVof
p2679
I4268
sVbidet
p2680
I669
sVboat's
p2681
I4362
sVstates
p2682
I670
sVpushed
p2683
I1842
sVsmartphone
p2684
I2710
sVsalty
p2685
I671
sVnumbers
p2686
I3116
sVsense
p2687
I672
sVcows
p2688
I1843
sV11:00
p2689
I673
sVmagenta
p2690
I1844
sVswung
p2691
I4365
sVdress
p2692
I674
sVscat
p2693
I675
sVlongest
p2694
I4469
sVstring
p2695
I2711
sV!
p2696
I3118
sVinformation
p2697
I676
sVneeds
p2698
I3119
sVbeef
p2699
I3892
sVpanes
p2700
I3614
sVdreads
p2701
I1562
sVkhakis
p2702
I4369
sVrather
p2703
I4370
sVstickers
p2704
I1697
sVstripe
p2705
I3282
sVrye
p2706
I4084
sVthumbs
p2707
I3926
sVdrainer
p2708
I3120
sVmenus
p2709
I1845
sVglowing
p2710
I677
sVautomotive
p2711
I3791
sVoccur
p2712
I4666
sVstir
p2713
I3121
sVgoat
p2714
I4371
sVcreature
p2715
I678
sVsprinkle
p2716
I679
sVsandwich
p2717
I4372
sVokay
p2718
I4373
sVincludes
p2719
I4301
sVminivan
p2720
I3434
sVour
p2721
I4701
sVreflect
p2722
I1606
sVplane
p2723
I4109
sVlighting
p2724
I4374
sVwaves
p2725
I680
sVhorizontal
p2726
I1846
sVhuddled
p2727
I3376
sVplank
p2728
I681
sVa
p2729
I1847
sVchute
p2730
I3124
sVshort
p2731
I4375
sVresemble
p2732
I682
sVbookbag
p2733
I1848
sVtoiletries
p2734
I3127
sVpaw
p2735
I2955
sVeats
p2736
I3128
sVvolleyball
p2737
I683
sVdragon
p2738
I3129
sVheight
p2739
I2576
sVperhaps
p2740
I4802
sVshore
p2741
I4376
sVchopsticks
p2742
I1849
sVshade
p2743
I4377
sVpay
p2744
I2956
sVtrellis
p2745
I684
sVbreads
p2746
I1850
sVdream
p2747
I1645
sVplaying
p2748
I3130
sVpatio
p2749
I685
sVthat's
p2750
I3131
sVpans
p2751
I686
sVrounded
p2752
I3132
sVhelp
p2753
I1852
sVit's
p2754
I3550
sVpant
p2755
I687
sVbowl
p2756
I4213
sVartwork
p2757
I4017
sVdoorknob
p2758
I4380
sVcross
p2759
I4804
sVheld
p2760
I1853
sVwiener
p2761
I1854
sVpaper
p2762
I688
sVthrough
p2763
I3133
sVsame
p2764
I2957
sVpane
p2765
I689
sVsigns
p2766
I690
sVhelm
p2767
I1855
sVsmiling
p2768
I691
sVits
p2769
I692
sVlevel
p2770
I4022
sV24
p2771
I3135
sV25
p2772
I3136
sV26
p2773
I3137
sV27
p2774
I3138
sV20
p2775
I3139
sV21
p2776
I3140
sV22
p2777
I3141
sVcall
p2778
I2429
sVdials
p2779
I3966
sVcatchers
p2780
I4836
sV28
p2781
I3143
sV29
p2782
I3144
sVhandheld
p2783
I3145
sVactually
p2784
I1857
sVparts
p2785
I4385
sVlaces
p2786
I694
sVpeanuts
p2787
I1858
sVbout
p2788
I4386
sVcool
p2789
I4019
sVsauce
p2790
I695
sVdolls
p2791
I3147
sVleft-most
p2792
I1859
sVgood
p2793
I3148
sVtoiletry
p2794
I696
sVyo
p2795
I1860
sVfood
p2796
I1861
sVgadget
p2797
I697
sVmales
p2798
I3149
sVpersonne
p2799
I698
sVcupcake
p2800
I1862
sVflies
p2801
I4496
sVinch
p2802
I4807
sVwalls
p2803
I3150
sVpink's
p2804
I4391
sVstarbucks
p2805
I1863
sVfoot
p2806
I1864
sVclouds
p2807
I4020
sVhairdryer
p2808
I4392
sVviewers
p2809
I3151
sVhotdogs
p2810
I699
sVeasily
p2811
I3152
sVstopper
p2812
I1865
sVgets
p2813
I4808
sVchairlift
p2814
I3153
sVshop
p2815
I2881
sVwash
p2816
I109
sVfully
p2817
I1866
sVtricycle
p2818
I1867
sVyellows
p2819
I701
sVnormally
p2820
I3502
sVeverything
p2821
I3952
sVswimsuit
p2822
I702
sVasparagus
p2823
I2079
sVright-hand
p2824
I3155
sVstopped
p2825
I1869
sVdie
p2826
I2717
sVfound
p2827
I703
sVbiscuits
p2828
I3156
sVnotes
p2829
I4612
sVisn't
p2830
I1751
sVlantern
p2831
I704
sVheavy
p2832
I1872
sVbrunette
p2833
I705
sVtilted
p2834
I4396
sVupstairs
p2835
I706
sVweight
p2836
I4397
sVnumerals
p2837
I1703
sVhouse
p2838
I3159
sVfish
p2839
I4285
sVhard
p2840
I3160
sVpositioned
p2841
I1873
sVmonks
p2842
I418
sVextended
p2843
I2961
sVconnect
p2844
I3163
sVfist
p2845
I3164
sVscissors
p2846
I3795
sVscratching
p2847
I4399
sVbarricades
p2848
I4672
sVblues
p2849
I707
sVbeyond
p2850
I1874
sVbackpacks
p2851
I3166
sVcomic
p2852
I3167
sVreally
p2853
I708
sVbikers
p2854
I1875
sVflower
p2855
I3168
sVmissed
p2856
I4304
sVblacks
p2857
I709
sVitem
p2858
I2719
sVsince
p2859
I1792
sVpigeon
p2860
I3169
sVunknown
p2861
I4720
sVdugout
p2862
I4401
sVfountain
p2863
I1799
sVhill
p2864
I4402
sV7
p2865
I1878
sVprint
p2866
I3170
sVflame
p2867
I3817
sValigned
p2868
I2438
sV1-3
p2869
I2299
sVhighway
p2870
I710
sVscissor
p2871
I4815
sVass
p2872
I1880
sVforeground
p2873
I3171
sVbald
p2874
I1881
sVcrouched
p2875
I3172
sVdirt
p2876
I1882
sVporcelain
p2877
I711
sVgut
p2878
I1507
sVhorse
p2879
I1898
sVcockpit
p2880
I713
sVhouses
p2881
I1883
sVbase
p2882
I1884
sVcookie
p2883
I4405
sVbrightest
p2884
I1885
sVmembers
p2885
I3173
sVimagine
p2886
I714
sVput
p2887
I1825
sVash
p2888
I1887
sVbeginning
p2889
I3174
sVguy
p2890
I1508
sVwall
p2891
I4780
sVbushes
p2892
I1834
sVpairs
p2893
I715
sVbuilding's
p2894
I4408
sVthread
p2895
I4409
sVenglish
p2896
I4817
sVrecord
p2897
I4877
sVwoman's
p2898
I716
sVbut
p2899
I3638
sVexcluding
p2900
I3602
sVrack
p2901
I717
sVamerican
p2902
I1889
sVfruit
p2903
I1706
sVw
p2904
I718
sVbumper
p2905
I719
sVbarber
p2906
I3178
sVcastle
p2907
I720
sVpilots
p2908
I3179
sVclump
p2909
I721
sVvirgin
p2910
I4114
sVfeed
p2911
I4412
sVcopper
p2912
I3180
sVmr
p2913
I3733
sVstatue
p2914
I4223
sVfeel
p2915
I4413
sVrelate
p2916
I4414
sVdoughnuts
p2917
I1892
sVnumber
p2918
I722
sVfancy
p2919
I4416
sVfeeder
p2920
I723
sVslipper
p2921
I724
sVelder
p2922
I1894
sVsailor
p2923
I1868
sVtalked
p2924
I2724
sVans
p2925
I4130
sVairborne
p2926
I1900
sVblank
p2927
I4418
sVflorist
p2928
I725
sVguard
p2929
I3626
sVcups
p2930
I3182
sVmiss
p2931
I1896
sVwhale
p2932
I4812
sVrazor
p2933
I3183
sVguess
p2934
I726
sV"
p2935
I4420
sVheads
p2936
I727
sVtemperature
p2937
I4421
sVjet
p2938
I728
sVpaint
p2939
I3187
sVblossom
p2940
I1899
sVleading
p2941
I1891
sV5th
p2942
I3184
sVjetty
p2943
I3185
sVrails
p2944
I1895
sVcartoon
p2945
I4225
sVseasoning
p2946
I2725
sVleash
p2947
I3188
sVstation
p2948
I1901
sVpassed
p2949
I4425
sVdealing
p2950
I2726
sVmama
p2951
I3189
sVton
p2952
I3801
sVcompartment
p2953
I3190
sVsyrup
p2954
I4426
sVbanana
p2955
I1903
sVketchup
p2956
I2312
sVmini
p2957
I2510
sVselling
p2958
I1904
sVpump
p2959
I2915
sVbowel
p2960
I1905
sVshelving
p2961
I2451
sVpark
p2962
I3193
sVimmediate
p2963
I729
sVdraped
p2964
I3194
sVpart
p2965
I3195
sVmural
p2966
I3383
sValphabets
p2967
I1906
sVstairs
p2968
I730
sVuncut
p2969
I4429
sVobama
p2970
I731
sVdraping
p2971
I2727
sVgrocery
p2972
I1907
sVjohn
p2973
I1337
sVfrock
p2974
I732
sVdouble
p2975
I4433
sVgrey
p2976
I1908
sVpanda
p2977
I733
sVtummy
p2978
I734
sVstall
p2979
I4434
sVcuff
p2980
I1336
sVsupposed
p2981
I3198
sVattention
p2982
I4489
sVoutdoors
p2983
I1955
sVdang
p2984
I1956
sVkindle
p2985
I1910
sVtaxis
p2986
I735
sVtoward
p2987
I1911
sV44
p2988
I3662
sVweapon
p2989
I3580
sVdried
p2990
I4027
sVmickey
p2991
I1912
sVcleaner
p2992
I4437
sVoclock
p2993
I3097
sVcoleslaw
p2994
I1913
sV76
p2995
I4449
sVrefrigerators
p2996
I736
sValongside
p2997
I1914
sVpedestrian
p2998
I737
sVsmaller
p2999
I4613
sVgraffiti
p3000
I738
sValike
p3001
I4438
sVblond
p3002
I739
sVmy
p3003
I3735
sVrugs
p3004
I4439
sVbackseat
p3005
I3200
sVlid
p3006
I1916
sVlie
p3007
I1998
sVbreathing
p3008
I4608
sVkoala
p3009
I1917
sVbuilt
p3010
I3202
sVdancing
p3011
I3203
sVlil
p3012
I1919
sVodd
p3013
I928
sVself
p3014
I741
sVdrapes
p3015
I3191
sVofficers
p3016
I1920
sVcamouflage
p3017
I1921
sVcouch
p3018
I3204
sVlit
p3019
I1922
sValso
p3020
I742
sVentirety
p3021
I4443
sVlip
p3022
I1923
sVbuild
p3023
I3206
sVknobs
p3024
I743
sVdrinks
p3025
I4030
sVbrace
p3026
I744
sVtool
p3027
I3807
sVzucchini
p3028
I3207
sVplay
p3029
I745
sVtowards
p3030
I1924
sVelectric
p3031
I4447
sVcargo
p3032
I1511
sVselectable
p3033
I2657
sVblackboard
p3034
I746
sVeggs
p3035
I3208
sVteddy's
p3036
I2973
sVsalmon
p3037
I3209
sVchart
p3038
I3210
sVplat
p3039
I747
sVcigarette
p3040
I2034
sV75
p3041
I4450
sVpoke
p3042
I3212
sVplan
p3043
I748
sVeaten
p3044
I1926
sVposition
p3045
I3585
sVnothing
p3046
I4452
sVcheckers
p3047
I4619
sVextremely
p3048
I3213
sVmodel
p3049
I4229
sVrefrigerator
p3050
I3214
sVstands
p3051
I4031
sVpatterned
p3052
I4453
sVmodem
p3053
I4230
sVsurf
p3054
I4138
sVpaintings
p3055
I2095
sVbug
p3056
I3642
sVmobile
p3057
I1927
sVclear
p3058
I1928
sVshowcase
p3059
I4621
sVcover
p3060
I749
sVn
p3061
I3903
sVtongs
p3062
I2053
sVlounge
p3063
I4681
sVartistic
p3064
I750
sVclean
p3065
I1929
sVweigh
p3066
I3216
sVbarrel
p3067
I751
sVtubes
p3068
I1930
sVbulletin
p3069
I752
sVhips
p3070
I1931
sVwording
p3071
I753
sVstones
p3072
I4457
sVspherical
p3073
I2308
sVugh
p3074
I754
sVgolf
p3075
I755
sVcereal
p3076
I1341
sVgold
p3077
I756
sVviolet
p3078
I4762
sVhugging
p3079
I3217
sVhillside
p3080
I3218
sVcrayon
p3081
I1932
sVobstructed
p3082
I3196
sVperched
p3083
I3219
sVcoaster
p3084
I3586
sVfont
p3085
I4461
sVfine
p3086
I3220
sVfind
p3087
I3221
sVblender
p3088
I757
sVcell
p3089
I2097
sVindicator
p3090
I758
sVcow's
p3091
I4462
sVstreetlights
p3092
I759
sVsign's
p3093
I3224
sVscooter
p3094
I1934
sVwriter
p3095
I760
sVwaiting
p3096
I4623
sVcassette
p3097
I761
sVpretty
p3098
I1936
sV8
p3099
I3225
sVcircle
p3100
I1937
sVmike
p3101
I4788
sVcolumns
p3102
I762
sVhip
p3103
I4464
sVshepherd
p3104
I4465
sVhis
p3105
I4466
sVhit
p3106
I2133
sVmember
p3107
I4805
sVdistance
p3108
I2505
sVbeams
p3109
I763
sVshe
p3110
I2250
sVkind
p3111
I4432
sVtrees
p3112
I1938
sVlatch
p3113
I3981
sVb
p3114
I3197
sVbatter
p3115
I3226
sVpreparing
p3116
I764
sVclosely
p3117
I765
sVflag's
p3118
I4470
sVbanner
p3119
I766
sVhim
p3120
I4471
sVchimney
p3121
I1940
sVsilo
p3122
I3229
sVcatcher
p3123
I1941
sVmotorcycles
p3124
I3231
sVsleeve
p3125
I767
sVwithe
p3126
I1942
sVgazebo
p3127
I1943
sVflorette
p3128
I768
sVperfume
p3129
I1944
sVfolding
p3130
I3247
sVstored
p3131
I3589
sVcaramel
p3132
I769
sVtale
p3133
I2789
sVactivity
p3134
I4472
sVx
p3135
I1946
sVriver
p3136
I770
sVmouthwash
p3137
I3232
sVapproaching
p3138
I771
sVbody
p3139
I3389
sVbars
p3140
I4473
sVset
p3141
I772
sVstump
p3142
I2666
sVdump
p3143
I4475
sVthrowing
p3144
I1947
sVtarps
p3145
I4476
sVsex
p3146
I773
sVtouch
p3147
I1713
sVsee
p3148
I775
sVarc
p3149
I2205
sVsec
p3150
I776
sVare
p3151
I4478
sVsea
p3152
I777
sVpolish
p3153
I4234
sVsquarish
p3154
I4479
sVclose
p3155
I1948
sV11th
p3156
I3235
sVarm
p3157
I4481
sVdefinitely
p3158
I2529
sVproject
p3159
I575
sV#
p3160
I779
sVcreme
p3161
I4485
sVbride
p3162
I1909
sVmovie
p3163
I780
sVwow
p3164
I1950
sVcurrently
p3165
I781
sVburner
p3166
I3236
sVtopmost
p3167
I782
sVhalves
p3168
I3238
sVpickup
p3169
I783
sVsmallest
p3170
I3240
sVvarious
p3171
I4486
sVwok
p3172
I1951
sVprobably
p3173
I1952
sVcrosswalk
p3174
I784
sVchampagne
p3175
I3241
sV15th
p3176
I785
sVavailable
p3177
I786
sVflashlight
p3178
I3592
sVmakeup
p3179
I2733
sVcatcher's
p3180
I3165
sVwaiter
p3181
I2828
sVdo
p3182
I1362
sVmissing
p3183
I1954
sVsold
p3184
I4488
sVsole
p3185
I2267
sVroe
p3186
I4490
sVmailbox
p3187
I3242
sVdispenser
p3188
I4436
sVspray
p3189
I1957
sVcoffee
p3190
I2947
sVflatware
p3191
I787
sVinvisible
p3192
I1958
sVbasin
p3193
I2585
sVzipper
p3194
I1959
sVsprinkled
p3195
I2222
sVbronze
p3196
I4492
sVtot
p3197
I3181
sVboth
p3198
I1960
sVc
p3199
I4493
sVcubes
p3200
I3246
sVblazer
p3201
I85
sVlicense
p3202
I4494
sVrestaurant
p3203
I3248
sVarchway
p3204
I3249
sVbarely
p3205
I790
sVconnection
p3206
I791
sVparamedic
p3207
I3052
sVeggplant
p3208
I1961
sVmulti-colored
p3209
I792
sVfocused
p3210
I2103
sS'Yes'
p3211
I0
sVwhole
p3212
I793
sVstoplight
p3213
I1962
sVlanyard
p3214
I794
sVload
p3215
I795
sVloaf
p3216
I796
sVwear
p3217
I3881
sVconsume
p3218
I3252
sVbell
p3219
I797
sVbattery
p3220
I1965
sVsweet
p3221
I4497
sVwastebasket
p3222
I4498
sVwhatever
p3223
I1966
sVpamphlet
p3224
I3254
sVsimply
p3225
I3255
sVchurch
p3226
I799
sVvessel
p3227
I1967
sVmattress
p3228
I4384
sVdesktop
p3229
I1719
sVfrosting
p3230
I2736
sVfrog
p3231
I4644
sVbelt
p3232
I801
sVduh
p3233
I2338
sVfinally
p3234
I2708
sVchopper
p3235
I3158
sVdescribed
p3236
I1969
sVraise
p3237
I3256
sVconveyor
p3238
I802
sVstamp
p3239
I1970
sVcreate
p3240
I3258
sVcurve
p3241
I4306
sVappears
p3242
I1516
sVhitting
p3243
I803
sVpc
p3244
I2351
sVdropping
p3245
I3259
sVdamn
p3246
I1971
sVocean
p3247
I3918
sVpeppers
p3248
I3260
sVbrick
p3249
I4505
sVattire
p3250
I4624
sVempty
p3251
I1972
sVblob
p3252
I4245
sVblankets
p3253
I2990
sVresting
p3254
I804
sVvans
p3255
I3261
sVsleeved
p3256
I805
sVpartly
p3257
I1973
sVgay
p3258
I3262
sVpacks
p3259
I1974
sVfire
p3260
I806
sVwhat's
p3261
I807
sVwheeler
p3262
I808
sVgas
p3263
I3263
sVelse
p3264
I1976
sVgal
p3265
I3265
sVsleeves
p3266
I809
sVgrills
p3267
I1977
sVwedding
p3268
I3859
sVinstructor
p3269
I4513
sVwheeled
p3270
I810
sVfirs
p3271
I811
sVplants
p3272
I4514
sVhandling
p3273
I812
sVfur
p3274
I3267
sVlook
p3275
I1979
sVjuice
p3276
I1915
sVsolid
p3277
I3269
sVski
p3278
I4830
sVstraight
p3279
I813
sVbill
p3280
I3270
sVgrainy
p3281
I3271
sVbatch
p3282
I4515
sVrope
p3283
I1980
sVwhile
p3284
I1981
sVshallow
p3285
I4725
sVbarricade
p3286
I4516
sVkick
p3287
I2314
sVleaning
p3288
I814
sVfun
p3289
I3272
sVkissing
p3290
I815
sVbiking
p3291
I2417
sVguide
p3292
I1984
sVcages
p3293
I817
sVpack
p3294
I1986
sVreal
p3295
I1720
sVselected
p3296
I3703
sV30
p3297
I3398
sVmote
p3298
I819
sVbats
p3299
I3968
sVpetal
p3300
I1987
sVcalculator
p3301
I820
sVob
p3302
I4269
sVbinding
p3303
I821
sVsuspended
p3304
I2841
sVducks
p3305
I822
sVdecoration
p3306
I3273
sVreads
p3307
I1988
sVitself
p3308
I3274
sVnightstand
p3309
I4519
sVstoves
p3310
I52
sVleaving
p3311
I4634
sVsouth
p3312
I3473
sVcoca-cola
p3313
I823
sVaudi
p3314
I824
sVfunny
p3315
I825
sVdecor
p3316
I826
sVunlit
p3317
I2494
sVshirt
p3318
I4521
sVdude's
p3319
I1991
sVmint
p3320
I2516
sVslab
p3321
I1635
sVbelong
p3322
I1993
sVbutcher
p3323
I3275
sVshorter
p3324
I828
sVbird's
p3325
I4650
sVdelicious
p3326
I4522
sVkimono
p3327
I4523
sVsquiggly
p3328
I1994
sVpecking
p3329
I829
sVoutermost
p3330
I1723
sV9
p3331
I4525
sVrelatively
p3332
I3828
sVday
p3333
I3449
sVhigher
p3334
I2474
sVwindmill
p3335
I3276
sVhallway
p3336
I1996
sVused
p3337
I1997
sVtupperware
p3338
I3278
sVmountain
p3339
I3201
sVkeys
p3340
I3279
sVpomegranate
p3341
I1999
sVcigar
p3342
I831
sVleopard
p3343
I3280
sVcement
p3344
I4527
sVdesks
p3345
I3281
sVviewing
p3346
I832
sVlevels
p3347
I833
sVcucumber
p3348
I834
sVpurpose
p3349
I106
sVplugs
p3350
I2002
sVsandals
p3351
I3283
sVstack
p3352
I836
sVstoplights
p3353
I2517
sVcanned
p3354
I837
sVbeanie
p3355
I3285
sVnoodle
p3356
I4531
sVbarry
p3357
I2933
sVrooster
p3358
I4799
sVolder
p3359
I2507
sVhalve
p3360
I121
sVdocked
p3361
I2003
sVcenter
p3362
I3579
sVpicks
p3363
I838
sVperson
p3364
I126
sVrailings
p3365
I3428
sVedge
p3366
I4534
sVflags
p3367
I3287
sVy
p3368
I3288
sVgrid
p3369
I2986
sVstating
p3370
I4535
sVpaneling
p3371
I3290
sVhotdog
p3372
I4536
sVcomposed
p3373
I3403
sVwatching
p3374
I4753
sVchord
p3375
I2006
sVfast
p3376
I4564
sVblur
p3377
I3707
sVbottoms
p3378
I2316
sVbirthday
p3379
I4078
sVquarters
p3380
I2007
sVpress
p3381
I4837
sVshape
p3382
I3292
sVcropped
p3383
I4441
sVquestions
p3384
I4539
sVusing
p3385
I1726
sVuseful
p3386
I2744
sVstalk
p3387
I4435
sVpredominantly
p3388
I3831
sVwearable
p3389
I841
sVtables
p3390
I4540
sVdrizzled
p3391
I842
sVsandal
p3392
I843
sVhelping
p3393
I4595
sVgoblet
p3394
I844
sVtablet
p3395
I4542
sVmajority
p3396
I3205
sVrecipient
p3397
I1728
sVworkers
p3398
I4543
sVcanisters
p3399
I2009
sVadvertisements
p3400
I846
sVsignals
p3401
I847
sVsource
p3402
I3296
sVgrapefruit
p3403
I848
sVparents
p3404
I849
sVcub
p3405
I195
sVrossignol
p3406
I4544
sVsnap
p3407
I3297
sVinput
p3408
I851
sVlimes
p3409
I2715
sVfurniture
p3410
I4251
sVremaining
p3411
I2011
sVsandwiches
p3412
I4444
sVbin
p3413
I202
sVmetro
p3414
I4631
sVvendor
p3415
I4545
sVsit
p3416
I4663
sVemergency
p3417
I853
sVbatter's
p3418
I3300
sVbig
p3419
I3301
sVskateboards
p3420
I854
sVlandscape
p3421
I2424
sVbib
p3422
I3303
sVfolk
p3423
I4618
sVgame
p3424
I2014
sVflamingo
p3425
I3600
sVbaskets
p3426
I3405
sVtowel
p3427
I4252
sVbit
p3428
I3304
sVwings
p3429
I2016
sVtranslucent
p3430
I2017
sVflannel
p3431
I932
sVmaybe
p3432
I2788
sVvests
p3433
I2018
sVd
p3434
I855
sVsemi
p3435
I3305
sVshaped
p3436
I4547
sVspine
p3437
I856
sVoncoming
p3438
I1292
sVdisks
p3439
I3306
sVtoyota
p3440
I2020
sVglove
p3441
I3307
sVshapes
p3442
I2648
sVindividuals
p3443
I857
sVnipple
p3444
I4549
sVvibrant
p3445
I3603
sVbamboo
p3446
I3308
sVleft-hand
p3447
I4250
sVgrouped
p3448
I4591
sVcones
p3449
I2022
sVspring
p3450
I269
sV1st
p3451
I4044
sVsome
p3452
I2023
sVback
p3453
I275
sVbounce
p3454
I859
sVstreamers
p3455
I1732
sVlimb
p3456
I4885
sVlips
p3457
I2024
sVcamera's
p3458
I861
sVpalm
p3459
I862
sVclown
p3460
I4551
sVsight
p3461
I863
sVmirror
p3462
I3310
sVcandle
p3463
I3311
sVpale
p3464
I864
sVsaucer
p3465
I4552
sVfacing
p3466
I2995
sVscale
p3467
I3312
sVheinz
p3468
I4025
sVjewelry
p3469
I3313
sVpet
p3470
I3314
sVpew
p3471
I3315
sVaudience
p3472
I2996
sVper
p3473
I3316
sVseller
p3474
I2702
sVpen
p3475
I3317
sVsneakers
p3476
I3318
sVpee
p3477
I3319
sVleftmost
p3478
I2712
sVlime
p3479
I3409
sVsaab
p3480
I317
sVblackberry
p3481
I865
sVbe
p3482
I866
sVcameraman
p3483
I3323
sVrun
p3484
I2025
sVrequiem
p3485
I867
sVbooklet
p3486
I2026
sVbookshelves
p3487
I2730
sVcontinuing
p3488
I3324
sVrug
p3489
I2027
sVstem
p3490
I2028
sVzombie
p3491
I4555
sVbu
p3492
I868
sVstep
p3493
I2029
sVsanta
p3494
I869
sVserved
p3495
I2998
sVfrom
p3496
I4642
sVrelating
p3497
I870
sVobscured
p3498
I871
sVby
p3499
I872
sVhandled
p3500
I4556
sVshine
p3501
I2032
sVgoods
p3502
I3328
sVgnome
p3503
I2033
sVanything
p3504
I874
sVmost
p3505
I3211
sV&
p3506
I3331
sVmcdonald's
p3507
I2765
sVids
p3508
I2767
sVsurfers
p3509
I4558
sVhinge
p3510
I2770
sVpiled
p3511
I3332
sVrange
p3512
I4559
sV74
p3513
I4451
sVbeans
p3514
I3333
sVdads
p3515
I3922
sVwomens
p3516
I4560
sVshiny
p3517
I2035
sVblock
p3518
I2036
sVfridges
p3519
I1925
sVppl
p3520
I3334
sVseeing
p3521
I2037
sVgarbage
p3522
I875
sVinto
p3523
I388
sVwithin
p3524
I2038
sVtofu
p3525
I2039
sVsneaker
p3526
I2999
sVtaillights
p3527
I2040
sVaha
p3528
I3965
sVpepperoni
p3529
I2832
sVclack
p3530
I3336
sVprimarily
p3531
I876
sVframes
p3532
I3337
sVcontrollers
p3533
I4553
sVsports
p3534
I4048
sVrolls
p3535
I2041
sVjockey
p3536
I3339
sVstory
p3537
I4419
sVfew
p3538
I4645
sVnails
p3539
I4261
sVapparently
p3540
I3489
sVdoll
p3541
I3000
sVsock
p3542
I877
sVhandles
p3543
I4049
sVspecifically
p3544
I878
sVswatter
p3545
I3984
sVor
p3546
I4274
sVbike's
p3547
I4050
sVilluminated
p3548
I4286
sVwe're
p3549
I4566
sVbridesmaids
p3550
I879
sVsuit
p3551
I880
sVforward
p3552
I3340
sVchapati
p3553
I881
sV:
p3554
I882
sVsections
p3555
I4567
sVmounting
p3556
I3015
sViphone
p3557
I4051
sVfiles
p3558
I4568
sVmountains
p3559
I4569
sVhimself
p3560
I2043
sVinches
p3561
I883
sVwebcam
p3562
I1353
sVdownstairs
p3563
I3032
sVposter
p3564
I884
sVatop
p3565
I885
sVslacks
p3566
I4818
sVt-shirt
p3567
I886
sVboys
p3568
I3342
sVproperly
p3569
I2045
sVlink
p3570
I460
sValive
p3571
I3607
sVarmchairs
p3572
I2750
sVupright
p3573
I4573
sVscatting
p3574
I2047
sVline
p3575
I887
sVkitchenware
p3576
I4575
sVshutters
p3577
I2892
sVposted
p3578
I888
sVlifeguard
p3579
I3343
sVlaptop
p3580
I3925
sVcollared
p3581
I4292
sVskull
p3582
I2048
sVcurtain
p3583
I3553
sVtab
p3584
I4658
sVfries
p3585
I4578
sVup
p3586
I889
sVus
p3587
I890
sVum
p3588
I891
sVwindows
p3589
I4454
sVuk
p3590
I892
sVplanes
p3591
I3344
sVfried
p3592
I2922
sVsimilar
p3593
I2049
sValarm
p3594
I2525
sVfemale's
p3595
I2050
sVpossession
p3596
I4646
sVflop
p3597
I3346
sVassociated
p3598
I4581
sVadults
p3599
I2051
sVstripped
p3600
I506
sVchar
p3601
I894
sVcurd
p3602
I512
sVwarning
p3603
I4582
sVcurb
p3604
I3349
sVcrepes
p3605
I4583
sVcafe
p3606
I519
sVstagecoach
p3607
I3351
sVcotton
p3608
I2052
sVjalapenos
p3609
I3846
sVrainy
p3610
I4585
sV6th
p3611
I2206
sV%
p3612
I3352
sVpeach
p3613
I4587
sVfixing
p3614
I895
sVpeace
p3615
I4589
sVbacks
p3616
I4590
sVmatching
p3617
I3002
sVtowers
p3618
I4326
sVpitchers
p3619
I2030
sVelectrical
p3620
I2054
sVswirl
p3621
I897
sVmayonnaise
p3622
I3354
sVsails
p3623
I540
sVreflections
p3624
I3215
sVbrushing
p3625
I3355
sVdraw
p3626
I2055
sVtrouser
p3627
I548
sVspectators
p3628
I2056
sVmustard
p3629
I4593
sVcrouching
p3630
I2057
sVkiosk
p3631
I3412
sVsided
p3632
I898
sVsmiley
p3633
I2058
sVfiretruck
p3634
I3357
sVprepared
p3635
I3358
sVlens
p3636
I3359
sVinsect
p3637
I3012
sVslice
p3638
I4257
sVminivans
p3639
I4072
sVpointy
p3640
I2530
sVaqua
p3641
I2274
sVchocolate
p3642
I4058
sVsides
p3643
I900
sVstructure
p3644
I2059
sVpottery
p3645
I4598
sVfurthest
p3646
I901
sVlane
p3647
I902
sVland
p3648
I903
sVfighter
p3649
I904
sVmantel
p3650
I3361
sVcooker
p3651
I3362
sVdvd
p3652
I2061
sVage
p3653
I905
sVvehicles
p3654
I591
sVholes
p3655
I906
sVdragged
p3656
I4600
sVpamphlets
p3657
I3047
sVfiled
p3658
I3365
sVbeverage
p3659
I907
sVdot
p3660
I2531
sVbroad
p3661
I2333
sVbleacher
p3662
I2063
sVfresh
p3663
I908
sVbare
p3664
I4477
sVberries
p3665
I2065
sVbuffalo
p3666
I4601
sVhaving
p3667
I923
sVonce
p3668
I4602
sVpartial
p3669
I910
sVknotted
p3670
I912
sVbrochure
p3671
I3368
sVchariot
p3672
I3848
sVlamps
p3673
I3959
sVsnowmobile
p3674
I3369
sVliquor
p3675
I3868
sVgo
p3676
I2067
sVmoon
p3677
I4259
sVcupboards
p3678
I4604
sVcompact
p3679
I2068
sVsaree
p3680
I913
sVwc
p3681
I3532
sVasphalt
p3682
I4459
sVwindowsill
p3683
I914
sVglows
p3684
I915
sVpeanut
p3685
I3370
sVgiraffe's
p3686
I3371
sVyoung
p3687
I916
sVnose
p3688
I3321
sVshack
p3689
I2070
sVhats
p3690
I3677
sVhelps
p3691
I3372
sVfrisbees
p3692
I3373
sVexit
p3693
I558
sVinclude
p3694
I4606
sVfences
p3695
I4607
sVingredient
p3696
I3374
sVrag
p3697
I3819
sVfamily
p3698
I1823
sVlabels
p3699
I3849
sVv8
p3700
I2072
sVgarden
p3701
I918
sVoutside
p3702
I4170
sVdessert
p3703
I3375
sVend
p3704
I3739
sVkitty
p3705
I2073
sVwave
p3706
I2074
sVspoon
p3707
I4610
sVwavy
p3708
I2075
sVputting
p3709
I3377
sVtrough
p3710
I2076
sVllama
p3711
I919
sVmixing
p3712
I920
sVtoasted
p3713
I3378
sVdrinking
p3714
I4611
sVcandlestick
p3715
I3840
sVwipe
p3716
I693
sVedible
p3717
I4061
sVentire
p3718
I3379
sVpartially
p3719
I3644
sVcrowed
p3720
I2078
sVquestion
p3721
I4563
sVharbor
p3722
I922
sVgender
p3723
I2080
sVbutton
p3724
I2081
sVwatered
p3725
I2082
sVleader
p3726
I4846
sVtry
p3727
I924
sVtunnel
p3728
I3416
sVrace
p3729
I925
sV?
p3730
I2337
sVkit
p3731
I2620
sVcar's
p3732
I926
sV12th
p3733
I4395
sVpicker
p3734
I2084
sVovens
p3735
I3380
sVcap
p3736
I1540
sVyou'd
p3737
I4614
sVbleeding
p3738
I3381
sVcrow
p3739
I3382
sVcds
p3740
I4460
sVlightest
p3741
I4615
sVboots
p3742
I2085
sVjump
p3743
I2086
sVfold
p3744
I4616
sVhose
p3745
I2087
sVvideo
p3746
I927
sVbooth
p3747
I2088
sVpicked
p3748
I2089
sVequal
p3749
I3539
sVdenims
p3750
I2090
sVliner
p3751
I3433
sVspaghetti
p3752
I740
sVclick
p3753
I2091
sVtreeline
p3754
I3384
sVindex
p3755
I929
sVsausage
p3756
I2092
sVcupcakes
p3757
I2093
sVplays
p3758
I2094
sVsweats
p3759
I930
sVapparatus
p3760
I931
sVwallet
p3761
I2757
sVgiving
p3762
I3385
sVpipes
p3763
I3386
sVslight
p3764
I3617
sVpaddle
p3765
I3387
sVman's
p3766
I4622
sVsilverish
p3767
I933
sVrotten
p3768
I2098
sVindian
p3769
I934
sVpoles
p3770
I2099
sVflowing
p3771
I935
sVobvious
p3772
I3418
sV;
p3773
I2100
sVbird
p3774
I936
sVwaling
p3775
I937
sVarmpit
p3776
I4635
sVscenery
p3777
I938
sVled
p3778
I939
sVbroccolis
p3779
I2102
sVleg
p3780
I940
sVgot
p3781
I3779
sVpushing
p3782
I4626
sVgiant
p3783
I3222
sVarmrests
p3784
I2791
sVyoungest
p3785
I4628
sVgrowing
p3786
I2760
sVpacking
p3787
I3390
sVobjects
p3788
I3391
sVlet
p3789
I941
sVsink
p3790
I3392
sVpancake
p3791
I2104
sVothers
p3792
I798
sVsing
p3793
I3393
sVroof
p3794
I2442
sVplane's
p3795
I3394
sVextreme
p3796
I3395
sVcyclist
p3797
I4630
sVgreat
p3798
I942
sVdividing
p3799
I3223
sVbench
p3800
I3595
sVinvolved
p3801
I943
sV31
p3802
I816
sVearphones
p3803
I3027
sVshades
p3804
I4633
sV36
p3805
I3399
sV35
p3806
I3400
sV34
p3807
I3401
sVproducts
p3808
I2106
sVbuss
p3809
I146
sVpopcorn
p3810
I945
sVimplement
p3811
I3060
sVspices
p3812
I3286
sVmakes
p3813
I946
sVmaker
p3814
I947
sVwig
p3815
I2107
sVtat
p3816
I4653
sVnamed
p3817
I3404
sVshovel
p3818
I3293
sVapple
p3819
I541
sVnearest
p3820
I2762
sVpitch
p3821
I2800
sVfolded
p3822
I2535
sVwii
p3823
I2108
sVwit
p3824
I2109
sVboxy
p3825
I948
sVmotor
p3826
I4639
sVduck
p3827
I4640
sVoval
p3828
I3406
sVfaucet
p3829
I3175
sVninth
p3830
I4233
sVclockwise
p3831
I3408
sVtools
p3832
I949
sVcloud
p3833
I2110
sVreflector
p3834
I2764
sVstanding
p3835
I951
sVstrapped
p3836
I2111
sVfed
p3837
I3325
sVcrap
p3838
I3327
sVusb
p3839
I4643
sVzip
p3840
I873
sViced
p3841
I1180
sVchocolates
p3842
I952
sVreadable
p3843
I3410
sVrackets
p3844
I1049
sVnext
p3845
I953
sVeleven
p3846
I954
sVcamera
p3847
I2112
sVbottom-left
p3848
I955
sVvehicle
p3849
I2113
sVtoy
p3850
I3796
sVthemselves
p3851
I3411
sVstage
p3852
I2114
sVchip
p3853
I1550
sVautomobile
p3854
I4422
sVcheeks
p3855
I2115
sVsort
p3856
I3345
sVpencil
p3857
I956
sV1/4
p3858
I2116
sV1/3
p3859
I2117
sV1/2
p3860
I2118
sVon
p3861
I4264
sVbobbing
p3862
I957
sVhalloween
p3863
I2131
sVglouse
p3864
I958
sVeditable
p3865
I3356
sVstone
p3866
I560
sVvisibility
p3867
I2119
sVconfused
p3868
I2766
sVtrail
p3869
I3413
sVcarrying
p3870
I960
sVrabbit
p3871
I4648
sVbaby
p3872
I961
sVcentral
p3873
I1748
sVcasserole
p3874
I963
sVboards
p3875
I3622
sVcustomer
p3876
I964
sVbridesmaid
p3877
I1551
sVballs
p3878
I965
sVanimals
p3879
I966
sVarched
p3880
I2121
sVsalad
p3881
I2122
sVf
p3882
I3415
sVthis
p3883
I967
sVsis
p3884
I4661
sVathlete
p3885
I968
sVoh
p3886
I4267
sVram
p3887
I3822
sVpour
p3888
I969
sVdonut
p3889
I2124
sVarches
p3890
I2125
sVanywhere
p3891
I2044
sVcrossed
p3892
I2126
sVthin
p3893
I971
sVisland
p3894
I3011
sVmeet
p3895
I2127
sVclosing
p3896
I3419
sVdrops
p3897
I2128
sVpelican
p3898
I4113
sVbend
p3899
I4468
sVcontrol
p3900
I2129
sVwedge
p3901
I973
sVwharf
p3902
I2130
sVpatrol
p3903
I3407
sVbent
p3904
I974
sVtar
p3905
I4655
sVplate
p3906
I152
sVlock
p3907
I976
sVslim
p3908
I977
sVrode
p3909
I978
sVpieces
p3910
I979
sVhigh
p3911
I980
sVcarrot
p3912
I3417
sVpulling
p3913
I2132
sVstreamer
p3914
I972
sVslip
p3915
I981
sVevery
p3916
I3686
sVrods
p3917
I982
sVpaws
p3918
I983
sVtrumpet
p3919
I984
sVtan
p3920
I4659
sVlamb
p3921
I3421
sVbatches
p3922
I1797
sVunited
p3923
I4662
sVpure
p3924
I3177
sVskirt
p3925
I2134
sVwares
p3926
I985
sVarrangement
p3927
I2136
sVlocated
p3928
I2137
sVburgandy
p3929
I2138
sVcamels
p3930
I4667
sVblobs
p3931
I4620
sVforest
p3932
I1010
sVanimal
p3933
I986
sVinstead
p3934
I4668
sVfurnace
p3935
I3425
sVpaler
p3936
I1020
sVprofile
p3937
I3426
sVyellowish
p3938
I987
sVbuildings
p3939
I3427
sVentree
p3940
I2140
sVblocks
p3941
I988
sVfarm
p3942
I2142
sVwatch
p3943
I3855
sVimmersed
p3944
I4671
sVwallpaper
p3945
I989
sVlitter
p3946
I4550
sVtied
p3947
I990
sVfluid
p3948
I3856
sVow
p3949
I4272
sVnotebook
p3950
I991
sVwrist
p3951
I4673
sVtier
p3952
I992
sVties
p3953
I993
sVcabbage
p3954
I994
sVracks
p3955
I995
sVautograph
p3956
I996
sVtomato
p3957
I997
sVroses
p3958
I4295
sVrealized
p3959
I998
sVeight
p3960
I3498
sVchasing
p3961
I3430
sVbind
p3962
I3431
sVcounter
p3963
I999
sVlines
p3964
I3432
sVrobot
p3965
I1000
sVelement
p3966
I1001
sVscoop
p3967
I2144
sVhitter
p3968
I4875
sVallow
p3969
I1002
sVchevrolet
p3970
I2135
sVnecklace
p3971
I4678
sVpastries
p3972
I2346
sVcounted
p3973
I1003
sVbins
p3974
I1069
sV3/4
p3975
I1939
sVbathing
p3976
I2145
sVleast
p3977
I3186
sVthigh
p3978
I1004
sVfattest
p3979
I2146
sVmirror's
p3980
I2147
sVmove
p3981
I1005
sVladies
p3982
I4277
sVmeter
p3983
I3437
sVfallen
p3984
I4411
sVsymbols
p3985
I3438
sVspatula
p3986
I1006
sVincluding
p3987
I2148
sVmotorcycle
p3988
I1007
sVcruise
p3989
I2150
sVmentioned
p3990
I2151
sVdenim
p3991
I3545
sVphone
p3992
I3728
sVplayer's
p3993
I1008
sVbunch
p3994
I3440
sVhorizontally
p3995
I3537
sVouter
p3996
I2152
sVla
p3997
I3441
sVsill
p3998
I3228
sVbroom
p3999
I2153
sVnotebooks
p4000
I2154
sVships
p4001
I4682
sVlamp
p4002
I3423
sVwalnut
p4003
I2155
sV12.00
p4004
I3443
sVdecal
p4005
I1009
sVsquatting
p4006
I3444
sVls
p4007
I3445
sVturban
p4008
I3556
sVredhead
p4009
I3559
sVcovered
p4010
I4686
sVcrowds
p4011
I582
sVspreading
p4012
I3022
sVhoney
p4013
I2889
sVattachment
p4014
I3424
sVmagnet
p4015
I2718
sVdesigns
p4016
I1127
sVsapling
p4017
I3447
sVorangey
p4018
I4687
sVsword
p4019
I2774
sVcitrus
p4020
I4688
sVauto
p4021
I2157
sVoutlined
p4022
I1011
sVnokia
p4023
I2158
sVbarn
p4024
I4482
sVbat
p4025
I2546
sVoranges
p4026
I4691
sVdock
p4027
I1012
sVspikes
p4028
I3230
sVbrand
p4029
I3637
sVsnake
p4030
I1013
sVboardwalk
p4031
I4883
sVhands
p4032
I2160
sVfront
p4033
I2161
sVheadphone
p4034
I4693
sVcage
p4035
I1014
sVtransparent
p4036
I1015
sVshirt's
p4037
I1016
sVeasel
p4038
I3599
sVblindfolded
p4039
I3450
sVtram
p4040
I4695
sVidentified
p4041
I3451
sVsniffing
p4042
I1017
sVslide
p4043
I2163
sVdoesnt
p4044
I3627
sVmode
p4045
I2164
sVrite
p4046
I4757
sVcrossing
p4047
I2165
sVaccompanied
p4048
I1018
sVbeneath
p4049
I1019
sVcircular
p4050
I2139
sVshaking
p4051
I2166
sVrowing
p4052
I3863
sVglasses
p4053
I1021
sVpicture
p4054
I3996
sVankles
p4055
I2168
sVcry
p4056
I2066
sVilluminate
p4057
I2169
sVdetermine
p4058
I4280
sVtents
p4059
I1022
sVdoing
p4060
I1023
sVglobe
p4061
I2170
sVdisplaying
p4062
I4010
sVmulticolored
p4063
I2171
sVwhitish
p4064
I4699
sVbooks
p4065
I1024
sVmeasure
p4066
I2172
sV82
p4067
I4700
sVrelates
p4068
I3655
sVmargins
p4069
I2173
sVpatch
p4070
I162
sVtenth
p4071
I1026
sVgoalkeeper
p4072
I1027
sVspecial
p4073
I2174
sVmat
p4074
I2778
sVbunched
p4075
I1028
sV'
p4076
I1029
sVentertainment
p4077
I2175
sVres
p4078
I3454
sVoccupied
p4079
I2867
sVfern
p4080
I4093
sVwholly
p4081
I3455
sVvcr
p4082
I4704
sVmate
p4083
I3456
sVspiky
p4084
I3724
sVbunches
p4085
I1030
sVgloves
p4086
I1945
sVelectronics
p4087
I3458
sVcause
p4088
I2177
sVred
p4089
I3460
sVoblong
p4090
I1031
sVhut
p4091
I4120
sVbuds
p4092
I4281
sVumbrella
p4093
I2179
sVutensil
p4094
I4705
sVipod
p4095
I4706
sVdiagonal
p4096
I2180
sVduffle
p4097
I3462
sVfourteen
p4098
I3463
sVsalami
p4099
I1245
sVcompletely
p4100
I2181
sVplease
p4101
I3465
sVcollection
p4102
I3429
sVdumpster
p4103
I4708
sVsaucers
p4104
I4759
sVvan
p4105
I4865
sVluggages
p4106
I1033
sVbusiness
p4107
I1742
sVsteering
p4108
I1034
sVshortest
p4109
I1035
sVlog
p4110
I1757
sVcrockpot
p4111
I4709
sVbackwards
p4112
I3467
sVyard
p4113
I3468
sVg
p4114
I4712
sVcould
p4115
I1036
sVarea
p4116
I1758
sVskateboard
p4117
I3469
sVtimer
p4118
I2184
sVtimes
p4119
I371
sVchilly
p4120
I1037
sVlength
p4121
I1038
sVpigs
p4122
I1039
sVpudding
p4123
I1040
sVgreen-ish
p4124
I3122
sVbarriers
p4125
I3472
sVbiting
p4126
I4714
sVparallel
p4127
I3747
sVmotorbikes
p4128
I1041
sVscarf
p4129
I1042
sVbouquet
p4130
I4715
sVmit
p4131
I3496
sVsignboard
p4132
I4716
sVscene
p4133
I1043
sVsack
p4134
I3474
sVjesus
p4135
I1044
sVbonnet
p4136
I4717
sVfloral
p4137
I4080
sVpuppet
p4138
I1312
sVwestern
p4139
I3813
sVfootpath
p4140
I4675
sVowner
p4141
I1045
sVart
p4142
I4474
sVbetween
p4143
I1671
sVbraces
p4144
I3475
sVihe
p4145
I1046
sVyou're
p4146
I2189
sVbull
p4147
I3562
sVdishwashing
p4148
I2190
sVmonkey
p4149
I3476
sVordering
p4150
I1047
sVguys
p4151
I2784
sVpots
p4152
I1331
sVsystem
p4153
I1048
sVwrapper
p4154
I2192
sVeighth
p4155
I4721
sVattach
p4156
I2193
sVumpire's
p4157
I4722
sVlifting
p4158
I1561
sVdecorations
p4159
I1050
sVankle
p4160
I2194
sVinverted
p4161
I3641
sVstructural
p4162
I532
sVperfectly
p4163
I2195
sVbranches
p4164
I4081
sVfluffy
p4165
I2557
sVcabin
p4166
I3479
sVbeard
p4167
I2196
sVshell
p4168
I4723
sVstomach
p4169
I1051
sVlot
p4170
I1763
sVshorts
p4171
I1053
sVshelf
p4172
I4724
sVexactly
p4173
I2197
sVmantelpiece
p4174
I3483
sVvar
p4175
I4726
sVreflecting
p4176
I4727
sVmanhole
p4177
I1054
sVfuzzy
p4178
I2198
sVpoliceman
p4179
I4394
sVherself
p4180
I2199
sVbulb
p4181
I3563
sVwaist
p4182
I2200
sVsteel
p4183
I1055
sVphotograph
p4184
I2201
sVben
p4185
I2202
sVwet
p4186
I1975
sVshampoo
p4187
I3486
sVlion
p4188
I3233
sVbed
p4189
I2203
sVbee
p4190
I2204
sVtruck's
p4191
I1564
sVindividual
p4192
I3234
sVmoto
p4193
I4728
sVright-most
p4194
I3471
sVcandles
p4195
I1565
sVidentical
p4196
I4831
sVdumb
p4197
I2207
sVsculpture
p4198
I4729
sVsteer
p4199
I1056
sVferry
p4200
I4062
sVdrunk
p4201
I4826
sVbagged
p4202
I2209
sVstraps
p4203
I4677
sVlightly
p4204
I2210
sVviewer
p4205
I1057
sVdeodorant
p4206
I1058
sVgrayish
p4207
I2212
sVcutlery
p4208
I2143
sVcase
p4209
I4201
sVmacaroni
p4210
I4215
sVsidewalk
p4211
I4406
sVhave
p4212
I3487
sVportrait
p4213
I2213
sVneed
p4214
I2214
sVcurved
p4215
I3488
sVborder
p4216
I2215
sVclearly
p4217
I1059
sVviewed
p4218
I1060
sVcomplete
p4219
I576
sVscrew
p4220
I2216
sVmicrophone
p4221
I2217
sVsprinkles
p4222
I2218
sVsprinkler
p4223
I2219
sVdishes
p4224
I1062
sVmin
p4225
I3491
sVjerseys
p4226
I3871
sVmic
p4227
I3492
sVable
p4228
I2220
sVmid
p4229
I3493
sVbagel
p4230
I4732
sVcherries
p4231
I2010
sVsh
p4232
I712
sVwhich
p4233
I4733
sVso
p4234
I2223
sV329
p4235
I3495
sVvisor
p4236
I2224
sVsoap
p4237
I1063
sVvegetation
p4238
I4734
sVblades
p4239
I2226
sVhorse's
p4240
I2227
sV56
p4241
I3939
sVpretzels
p4242
I4735
sVknees
p4243
I4736
sVpetrol
p4244
I4737
sVsewing
p4245
I2228
sVcamper
p4246
I2229
sVpetals
p4247
I1064
sVmasts
p4248
I3497
sVconnected
p4249
I2230
sVht
p4250
I2358
sVdevice
p4251
I1065
sVcabinet
p4252
I4287
sVsegment
p4253
I1066
sVgallery
p4254
I2231
sVcellphone
p4255
I2232
sVstereo
p4256
I3975
sVlined
p4257
I3435
sVplacement
p4258
I1067
sVbeets
p4259
I3500
sVskying
p4260
I4740
sVurn
p4261
I2233
sVbred
p4262
I1068
sVface
p4263
I1470
sVpipe
p4264
I4741
sVhi
p4265
I2359
sVmustache
p4266
I3436
sVdon't
p4267
I4379
sVmechanical
p4268
I1070
sVskinny
p4269
I3501
sVreferee's
p4270
I4743
sVpainting
p4271
I1071
sVselection
p4272
I3503
sVbackrest
p4273
I2598
sVanswered
p4274
I2707
sVbalding
p4275
I4744
sVextractor
p4276
I4083
sVshirted
p4277
I169
sVstove
p4278
I4016
sVcrate
p4279
I2234
sVanyway
p4280
I2235
sVbookshelf
p4281
I3640
sVbiker
p4282
I1073
sVbikes
p4283
I1074
sVparked
p4284
I2236
sVbedroom
p4285
I1075
sVtelling
p4286
I2077
sVsoldiers
p4287
I2237
sVchicken
p4288
I4747
sVkid's
p4289
I3237
sVthicker
p4290
I3508
sVshoes
p4291
I2797
sVone
p4292
I2471
sVnearer
p4293
I4749
sVtaps
p4294
I1076
sVblueish
p4295
I578
sVbased
p4296
I2240
sVplanter
p4297
I1078
sVtire
p4298
I2241
sV(
p4299
I2242
sVjar
p4300
I1079
sVfans
p4301
I3239
sVcontrols
p4302
I3511
sVshould
p4303
I1080
sVbuttons
p4304
I1081
sVbrighter
p4305
I2243
sVplanted
p4306
I1530
sVtape
p4307
I1082
sVcombo
p4308
I4056
sVemployee
p4309
I2246
sVriding
p4310
I1083
sVchinese
p4311
I4312
sVworktop
p4312
I2247
sVrocking
p4313
I4512
sVhope
p4314
I1084
sVmeant
p4315
I1085
sVcube
p4316
I4752
sVhandle
p4317
I1086
sVmeans
p4318
I1087
sVmainly
p4319
I4085
sVstripes
p4320
I3513
sVbear
p4321
I3514
sVsix
p4322
I4664
sVautos
p4323
I1088
sVbean
p4324
I3516
sVones
p4325
I4754
sVwords
p4326
I4755
sVbeak
p4327
I3517
sVbead
p4328
I3518
sVwise
p4329
I3645
sVstriped
p4330
I3520
sVchips
p4331
I4756
sVstyrofoam
p4332
I1089
sVareas
p4333
I3521
sVgray
p4334
I2248
sVthemself
p4335
I4338
sVpylon
p4336
I3825
sVtrucks
p4337
I2249
sVashtray
p4338
I3524
sVh
p4339
I1090
sVmarried
p4340
I4758
sVcalling
p4341
I3525
sVstuff
p4342
I1091
sVpictured
p4343
I1953
sVcontain
p4344
I2251
sVmercedes
p4345
I3526
sVchose
p4346
I4625
sVuniformed
p4347
I2252
sVcycles
p4348
I1607
sVcostume
p4349
I2149
sVspotted
p4350
I2253
sVguessing
p4351
I1092
sVworkbench
p4352
I4761
sVj
p4353
I3647
sVfarthest
p4354
I3528
sVsolo
p4355
I4487
sVappliance
p4356
I1770
sVframe
p4357
I1094
sVcuts
p4358
I2286
sVhumans
p4359
I2255
sVwe
p4360
I1373
sVpacket
p4361
I1096
sVoutfielder
p4362
I3529
sVbreathe
p4363
I3726
sVshelfs
p4364
I3530
sVcomputer
p4365
I2042
sVslanted
p4366
I1097
sVpowder
p4367
I2258
sVskateboarding
p4368
I1098
sVoperated
p4369
I2259
sVrider's
p4370
I2260
sVbarrels
p4371
I4763
sVpacked
p4372
I1099
sVwears
p4373
I2567
sVcloser
p4374
I4764
sVcloses
p4375
I4765
sVwire
p4376
I1100
sVinteracting
p4377
I1101
sVcloset
p4378
I4767
sVstrawberry
p4379
I3035
sVtypewriter
p4380
I4669
sVpattern
p4381
I3534
sVposing
p4382
I4652
sVchapstick
p4383
I2261
sVbelow
p4384
I4878
sVtend
p4385
I2262
sVstate
p4386
I2263
sVhammock
p4387
I3535
sVclosed
p4388
I4768
sVstories
p4389
I4769
sVneither
p4390
I2264
sVblocked
p4391
I4086
sVemail
p4392
I1102
sVtent
p4393
I2265
sVken
p4394
I2266
sVends
p4395
I1103
sVsipper
p4396
I3877
sVweighing
p4397
I4771
sVuse
p4398
I4641
sVcauliflower
p4399
I3536
sVopening
p4400
I4772
sVkeg
p4401
I2268
sVjoy
p4402
I4773
sVbuckets
p4403
I2269
sVcourt
p4404
I4367
sVkicking
p4405
I2270
sVjob
p4406
I4774
sVno
p4407
I3987
sVkey
p4408
I2271
sVlava
p4409
I3134
sVgroup
p4410
I2804
sVoutfit
p4411
I4491
sVfreezer
p4412
I1554
sVstaring
p4413
I1104
sVtoothbrush
p4414
I3879
sVtiers
p4415
I4775
sVpiece
p4416
I4776
sVdrum
p4417
I1105
sVgoal
p4418
I4368
sVdeer
p4419
I3040
sVramp
p4420
I1106
sVaircraft
p4421
I3243
sVetc
p4422
I1107
sVdoorway
p4423
I1108
sVfigures
p4424
I1109
sVcutted
p4425
I4778
sVpassing
p4426
I3540
sVll
p4427
I3442
sVjersey
p4428
I2276
sVotherwise
p4429
I3541
sVvent
p4430
I3542
sVch
p4431
I1712
sVco
p4432
I1714
sVpepsi
p4433
I3244
sVtoilet
p4434
I4289
sVbasins
p4435
I3544
sVca
p4436
I1110
sVovercoat
p4437
I3546
sVbikini
p4438
I2402
sVcd
p4439
I1111
sVpackaging
p4440
I4782
sVdistinguish
p4441
I2277
sVshining
p4442
I3700
sVlaugh
p4443
I3547
sVoxen
p4444
I1771
sVpicking
p4445
I2571
sVtrays
p4446
I4784
sVscanner
p4447
I1772
sVpouring
p4448
I3548
sVflowered
p4449
I4014
sVpin
p4450
I3706
sVgillette
p4451
I1112
sVpowered
p4452
I1113
sVshells
p4453
I3026
sVpolka
p4454
I2278
sVbranch
p4455
I4890
sVpoured
p4456
I1114
sVslowly
p4457
I2279
sVchalkboard
p4458
I1115
sVah
p4459
I3551
sVindicators
p4460
I1765
sVgent
p4461
I2105
sVfeather
p4462
I1116
sVwaste
p4463
I1117
sVcoloring
p4464
I3510
sVbbq
p4465
I4787
sV>
p4466
I1118
sVantlers
p4467
I3554
sVangled
p4468
I3555
sVshoulders
p4469
I2280
sVcotta
p4470
I4684
sVpainted
p4471
I4789
sVmoved
p4472
I1773
sVtap
p4473
I4654
sVreleasing
p4474
I2281
sVairplanes
p4475
I3557
sVtopless
p4476
I3652
sVridden
p4477
I3558
sVorange
p4478
I4685
sVcontroller
p4479
I2283
sVsausages
p4480
I3560
sVmannequin
p4481
I1119
sVmail
p4482
I2806
sVlast
p4483
I789
sVgeneral
p4484
I3042
sVpresent
p4485
I4791
sVomg
p4486
I2566
sVwood
p4487
I4153
sVmulti
p4488
I3564
sVplaid
p4489
I3565
sVlanding
p4490
I2670
sVplain
p4491
I3566
sVrunway
p4492
I1120
sValoe
p4493
I4793
sVappearance
p4494
I3567
sVas
p4495
I3568
sVrectangular
p4496
I3569
sVchalk
p4497
I2287
sVhovering
p4498
I4795
sVlead
p4499
I4841
sVhahaha
p4500
I1121
sVwild
p4501
I4796
sVpictures
p4502
I1949
sVbathtub
p4503
I1122
sVfielding
p4504
I1123
sVill
p4505
I1382
sVtoothbrushes
p4506
I2288
sVsupply
p4507
I4797
sVdad
p4508
I3446
sVstuffing
p4509
I1124
sVripe
p4510
I1125
sValmost
p4511
I3570
sVvi
p4512
I1126
sVelectronical
p4513
I2341
sVcoating
p4514
I2289
sVsurface
p4515
I2290
sVjelly
p4516
I3885
sVhardware
p4517
I1128
sVlying
p4518
I4456
sVaudiences
p4519
I4800
sVswinging
p4520
I2291
sVvw
p4521
I1129
sVave
p4522
I4801
sVlambs
p4523
I2292
sVsits
p4524
I1130
sVconical
p4525
I2293
sVtattoo
p4526
I1131
sVskateboarders
p4527
I1775
sVgrinder
p4528
I3571
sVmartini
p4529
I4679
sV)
p4530
I3572
sVpit
p4531
I3657
sVballoon
p4532
I2294
sVheadlight
p4533
I4803
sVupside
p4534
I3750
sVhighlighted
p4535
I1133
sVpiles
p4536
I3329
sVtanish
p4537
I3913
sVstrange
p4538
I2295
sVspeaker
p4539
I2296
sVnorthwest
p4540
I2297
sVtumbler
p4541
I3573
sVflour
p4542
I4689
sVshuttle
p4543
I3574
sVparty
p4544
I2298
sVstrawberries
p4545
I4742
sVfill
p4546
I3045
sVclothe
p4547
I3773
sVtomatoes
p4548
I4809
sVdifficult
p4549
I4810
sVinjured
p4550
I3575
sVball
p4551
I1134
sVagain
p4552
I3046
sVflesh
p4553
I1935
sVbale
p4554
I1879
sVdrink
p4555
I1135
sVupon
p4556
I1136
sV1-4
p4557
I2300
sVbinoculars
p4558
I3576
sVion
p4559
I3577
sVpaving
p4560
I1137
sVdust
p4561
I1138
sVpedal
p4562
I4811
sVoveralls
p4563
I1897
sVphp
p4564
I1139
sVbroccoli
p4565
I1140
sVfielder
p4566
I1141
sVpull
p4567
I2301
sVnumbered
p4568
I3578
sVblinds
p4569
I2754
sVoff
p4570
I1142
sVreflection
p4571
I2302
sVlunch
p4572
I2809
sVi
p4573
I2303
sVafar
p4574
I3250
sVcolour
p4575
I1143
sVingredients
p4576
I2369
sVwell
p4577
I2304
sVjargin
p4578
I1144
sVfighting
p4579
I4814
sVthought
p4580
I3581
sVpatterns
p4581
I1145
sVcutting
p4582
I3448
sValtoids
p4583
I2305
sVspectator
p4584
I4816
sVfencing
p4585
I2370
sVawning
p4586
I2307
sVmarkings
p4587
I2811
sVaudio
p4588
I1146
sVdrawing
p4589
I1147
sVshrimp
p4590
I4270
sVbandanna
p4591
I4455
sVlest
p4592
I1148
sVtaller
p4593
I2309
sVnadal
p4594
I4819
sVstores
p4595
I1933
sVbananas
p4596
I1149
sVrocket
p4597
I4820
sVless
p4598
I1150
sVboot
p4599
I4886
sVproximity
p4600
I3587
sVemerald
p4601
I4692
sVnumbering
p4602
I3588
sVbatters
p4603
I1963
sVdose
p4604
I2310
sVbatteries
p4605
I4821
sVclocks
p4606
I1151
sVdistant
p4607
I2311
sVfishing
p4608
I4822
sVseats
p4609
I3590
sVtough
p4610
I3591
sVglue
p4611
I1152
sVtopping
p4612
I1639
sVweb
p4613
I1153
sVbicycles
p4614
I1832
sVconsole
p4615
I4825
sVads
p4616
I3593
sVwee
p4617
I1154
sVfield
p4618
I3049
sVheaded
p4619
I1964
sVdinning
p4620
I1968
sVlake
p4621
I3594
sVcanister
p4622
I4222
sVhall
p4623
I1584
sVadd
p4624
I3596
sVlower
p4625
I4530
sVsedan
p4626
I3499
sV1:03
p4627
I3199
sVcrack
p4628
I1155
sVjars
p4629
I4829
sVsmart
p4630
I3598
sVballoons
p4631
I2313
sVmatch
p4632
I1982
sVknob
p4633
I4517
sVforklift
p4634
I4832
sVledge
p4635
I3667
sVwagon
p4636
I4094
sVchecking
p4637
I1156
sVwho's
p4638
I4833
sVpants
p4639
I4770
sVhaul
p4640
I1157
sVdryer
p4641
I2005
sVfive
p4642
I1158
sVawnings
p4643
I4198
sVknot
p4644
I4537
sVdesk
p4645
I1159
sVpropeller
p4646
I2317
sVimmediately
p4647
I2318
sVdoughnut
p4648
I4838
sVintersection
p4649
I2319
sVpier
p4650
I1160
sVpies
p4651
I1161
sVtoe
p4652
I3803
sVprominent
p4653
I2320
sVmotorola
p4654
I2015
sVshowing
p4655
I2013
sVlike
p4656
I3601
sVonion
p4657
I1162
sVchairs
p4658
I1163
sVsofa
p4659
I2021
sVcandy
p4660
I2322
sVdove
p4661
I3734
sVsized
p4662
I2323
sVgarage
p4663
I1164
sVdresses
p4664
I3669
sVchick
p4665
I3604
sVworks
p4666
I3605
sVsoft
p4667
I3606
sVpage
p4668
I2324
sVframed
p4669
I3335
sVshed
p4670
I2325
sVbecause
p4671
I4839
sVglare
p4672
I2326
sVschool
p4673
I3689
sVsequence
p4674
I4562
sVrailroad
p4675
I2989
sVlibrary
p4676
I2327
sVhair
p4677
I3608
sVshew
p4678
I2328
sValmonds
p4679
I1165
sVshes
p4680
I2330
sVflush
p4681
I1166
sVcomputers
p4682
I3176
sVhome
p4683
I2331
sVtransport
p4684
I1167
sVprojection
p4685
I2332
sVshrub
p4686
I3609
sVjalapeno
p4687
I1168
sVhangs
p4688
I4424
sVliterally
p4689
I1169
sVbedding
p4690
I1170
sVkettle
p4691
I2334
sVlean
p4692
I4842
sVthank
p4693
I2273
sVgrinding
p4694
I2335
sVfedex
p4695
I1172
sVdoes
p4696
I1173
sVmasked
p4697
I3610
sVsaucepan
p4698
I1174
sVassuming
p4699
I3611
sVearrings
p4700
I4845
sVspeak
p4701
I3612
sVchains
p4702
I3613
sVfanny
p4703
I2336
sVblurry
p4704
I1175
sVstairway
p4705
I1176
sVpepper
p4706
I3615
sVblowing
p4707
I1177
sVcoated
p4708
I2339
sVreaching
p4709
I2340
sVdangling
p4710
I4848
sVpear
p4711
I1782
sVjournal
p4712
I2342
sVrock
p4713
I2813
sVbathroom
p4714
I3891
sVslant
p4715
I605
sVmount
p4716
I4203
sVbundle
p4717
I3671
sVpasta
p4718
I4850
sVfluorescent
p4719
I4851
sVr
p4720
I4125
sVpaste
p4721
I4852
sVhiding
p4722
I1179
sVjam
p4723
I3619
sVabout
p4724
I3620
sVactual
p4725
I3621
sVsocket
p4726
I2120
sVextension
p4727
I4854
sV8th
p4728
I3676
sVcolumn
p4729
I4856
sVhaired
p4730
I3775
sVbiscuit
p4731
I4857
sVpocketbook
p4732
I3257
sVfoil
p4733
I2374
sVbearded
p4734
I2619
sVzebra's
p4735
I3623
sVcarries
p4736
I4858
sVseeds
p4737
I1181
sVtoppings
p4738
I2343
sVeatables
p4739
I2344
sVtailed
p4740
I3624
sVtongue
p4741
I2345
sVupward
p4742
I2167
sVswimming
p4743
I1182
sVowl
p4744
I4861
sVown
p4745
I4862
sVletters
p4746
I1183
sVpreviously
p4747
I2347
sVtag
p4748
I4656
sVflorets
p4749
I4697
sVsocks
p4750
I3625
sVthree
p4751
I2582
sVmushrooms
p4752
I2348
sVtableware
p4753
I2162
sVen
p4754
I1590
sVerect
p4755
I2583
sVfemale
p4756
I3628
sVroads
p4757
I1186
sVfootstool
p4758
I4694
sVdug
p4759
I2349
sVhang
p4760
I3782
sVdecorated
p4761
I3053
sVutility
p4762
I2350
sVting
p4763
I2584
sVridge
p4764
I3629
sVbrownies
p4765
I1187
sVwhom
p4766
I4503
sVstainless
p4767
I3630
sVvegetables
p4768
I2186
sVoutline
p4769
I3632
sVfirefighter
p4770
I2187
sVspiral
p4771
I4866
sVspots
p4772
I1188
sVprongs
p4773
I4303
sVspread
p4774
I3896
sVposters
p4775
I4597
sVinner
p4776
I2352
sVbiggest
p4777
I3633
sVdrumstick
p4778
I2353
sVupwards
p4779
I4893
sVchunk
p4780
I3634
sVfunction
p4781
I1190
sVbuilding
p4782
I1788
sVcricket
p4783
I2354
sVbuy
p4784
I3635
sVnorth
p4785
I2355
sVi've
p4786
I4870
sVhr
p4787
I2356
sVbus
p4788
I3636
sVcoke
p4789
I2225
sVtriangular
p4790
I2357
sVoverlapping
p4791
I1191
sVdelivery
p4792
I1192
sVmotorcycle's
p4793
I4871
sVconstruction
p4794
I1193
sVbun
p4795
I3639
sVrelated
p4796
I4698
sVnut
p4797
I3478
sVlarger
p4798
I4632
sVgrate
p4799
I1194
sVhighest
p4800
I1978
sVeat
p4801
I2361
sVbud
p4802
I3643
sVhe
p4803
I2362
sVcount
p4804
I1195
sVmade
p4805
I4874
sVcompute
p4806
I1196
sVplaces
p4807
I1197
sVwhether
p4808
I4876
sVdangerous
p4809
I3646
sVofficial
p4810
I1198
sVsmooth
p4811
I1199
sVflip
p4812
I3648
sVvolvo
p4813
I1200
sVplaced
p4814
I1201
sVcarriage
p4815
I2363
sVcatching
p4816
I4100
sVlimit
p4817
I2364
sVpl
p4818
I4506
sVmonument
p4819
I1202
sVcake
p4820
I4879
sVthrew
p4821
I2586
sVcondiment
p4822
I3649
sVdisplay
p4823
I2365
sVstirring
p4824
I4880
sVlady's
p4825
I3552
sVskating
p4826
I3650
sV3-4
p4827
I1789
sVred's
p4828
I3651
sVint
p4829
I1203
sVsheep's
p4830
I1790
sVtissues
p4831
I2366
sVpie
p4832
I2282
sVmaroon
p4833
I4882
sVpig
p4834
I3653
sVutensils
p4835
I2367
sVinn
p4836
I1204
sVreferee
p4837
I4509
sVtabletop
p4838
I3654
sVgoodness
p4839
I4884
sVink
p4840
I1205
sVflight
p4841
I4510
sVmash
p4842
I3656
sVtrailing
p4843
I626
sVsweatshirt
p4844
I3453
sVbalcony
p4845
I2368
sVmonter
p4846
I3658
sVcompared
p4847
I1206
sV48
p4848
I3659
sVvariety
p4849
I1207
sVdressed
p4850
I2306
sVkraft
p4851
I2239
sV45
p4852
I3663
sVpercent
p4853
I788
sV40
p4854
I3664
sV41
p4855
I3665
sVbating
p4856
I4887
sVother
p4857
I4828
sVoar
p4858
I2315
sVtalkie
p4859
I2371
sVgranite
p4860
I3668
sVout
p4861
I4702
sVfirefighters
p4862
I4511
sVponytail
p4863
I1208
sVdresser
p4864
I3670
sVloner
p4865
I4863
sVfrisbee
p4866
I2329
sVstar
p4867
I2372
sVmarlboro
p4868
I1209
sVclass
p4869
I4739
sVshown
p4870
I1596
sVoops
p4871
I3582
sVstay
p4872
I2373
sVchance
p4873
I1211
sVkinda
p4874
I4892
sVnintendo
p4875
I2375
sVgap
p4876
I3264
sVveil
p4877
I1212
sVcliff
p4878
I4869
sVghost
p4879
I1213
sVcoat
p4880
I3126
sVpate
p4881
I3710
sVsamsung
p4882
I2376
sVfrontier
p4883
I4703
sVjewel
p4884
I4894
sVeon
p4885
I1214
sVstrings
p4886
I1791
sVdog's
p4887
I3672
sVportion
p4888
I2377
sVlift
p4889
I198
sVstirrer
p4890
I3673
sVcondiments
p4891
I3815
sVunderstand
p4892
I3266
sVcookbook
p4893
I3674
sVbaked
p4894
I3675
sVsash
p4895
I4895
sVbuoy
p4896
I1215
s.